
Casio_wrist_watch.elf:     file format elf32-avr

Sections:
Idx Name          Size      VMA       LMA       File off  Algn
  0 .data         0000010a  00800200  00001aac  00001b40  2**0
                  CONTENTS, ALLOC, LOAD, DATA
  1 .text         00001aac  00000000  00000000  00000094  2**1
                  CONTENTS, ALLOC, LOAD, READONLY, CODE
  2 .bss          0000007e  0080030a  0080030a  00001c4a  2**0
                  ALLOC
  3 .comment      0000005c  00000000  00000000  00001c4a  2**0
                  CONTENTS, READONLY
  4 .note.gnu.avr.deviceinfo 00000040  00000000  00000000  00001ca8  2**2
                  CONTENTS, READONLY
  5 .debug_aranges 000001f8  00000000  00000000  00001ce8  2**0
                  CONTENTS, READONLY, DEBUGGING
  6 .debug_info   0000299a  00000000  00000000  00001ee0  2**0
                  CONTENTS, READONLY, DEBUGGING
  7 .debug_abbrev 00000f67  00000000  00000000  0000487a  2**0
                  CONTENTS, READONLY, DEBUGGING
  8 .debug_line   00001c5b  00000000  00000000  000057e1  2**0
                  CONTENTS, READONLY, DEBUGGING
  9 .debug_frame  000006b4  00000000  00000000  0000743c  2**2
                  CONTENTS, READONLY, DEBUGGING
 10 .debug_str    00000f75  00000000  00000000  00007af0  2**0
                  CONTENTS, READONLY, DEBUGGING
 11 .debug_loc    0000292c  00000000  00000000  00008a65  2**0
                  CONTENTS, READONLY, DEBUGGING
 12 .debug_ranges 00000208  00000000  00000000  0000b391  2**0
                  CONTENTS, READONLY, DEBUGGING

Disassembly of section .text:

00000000 <__vectors>:
       0:	78 c0       	rjmp	.+240    	; 0xf2 <__ctors_end>
       2:	00 00       	nop
       4:	96 c0       	rjmp	.+300    	; 0x132 <__bad_interrupt>
       6:	00 00       	nop
       8:	94 c0       	rjmp	.+296    	; 0x132 <__bad_interrupt>
       a:	00 00       	nop
       c:	92 c0       	rjmp	.+292    	; 0x132 <__bad_interrupt>
       e:	00 00       	nop
      10:	90 c0       	rjmp	.+288    	; 0x132 <__bad_interrupt>
      12:	00 00       	nop
      14:	8e c0       	rjmp	.+284    	; 0x132 <__bad_interrupt>
      16:	00 00       	nop
      18:	8c c0       	rjmp	.+280    	; 0x132 <__bad_interrupt>
      1a:	00 00       	nop
      1c:	8a c0       	rjmp	.+276    	; 0x132 <__bad_interrupt>
      1e:	00 00       	nop
      20:	88 c0       	rjmp	.+272    	; 0x132 <__bad_interrupt>
      22:	00 00       	nop
      24:	86 c0       	rjmp	.+268    	; 0x132 <__bad_interrupt>
      26:	00 00       	nop
      28:	84 c0       	rjmp	.+264    	; 0x132 <__bad_interrupt>
      2a:	00 00       	nop
      2c:	82 c0       	rjmp	.+260    	; 0x132 <__bad_interrupt>
      2e:	00 00       	nop
      30:	80 c0       	rjmp	.+256    	; 0x132 <__bad_interrupt>
      32:	00 00       	nop
      34:	7e c0       	rjmp	.+252    	; 0x132 <__bad_interrupt>
      36:	00 00       	nop
      38:	7c c0       	rjmp	.+248    	; 0x132 <__bad_interrupt>
      3a:	00 00       	nop
      3c:	7a c0       	rjmp	.+244    	; 0x132 <__bad_interrupt>
      3e:	00 00       	nop
      40:	78 c0       	rjmp	.+240    	; 0x132 <__bad_interrupt>
      42:	00 00       	nop
      44:	76 c0       	rjmp	.+236    	; 0x132 <__bad_interrupt>
      46:	00 00       	nop
      48:	74 c0       	rjmp	.+232    	; 0x132 <__bad_interrupt>
      4a:	00 00       	nop
      4c:	72 c0       	rjmp	.+228    	; 0x132 <__bad_interrupt>
      4e:	00 00       	nop
      50:	70 c0       	rjmp	.+224    	; 0x132 <__bad_interrupt>
      52:	00 00       	nop
      54:	6e c0       	rjmp	.+220    	; 0x132 <__bad_interrupt>
      56:	00 00       	nop
      58:	6c c0       	rjmp	.+216    	; 0x132 <__bad_interrupt>
      5a:	00 00       	nop
      5c:	0c 94 fa 09 	jmp	0x13f4	; 0x13f4 <__vector_23>
      60:	68 c0       	rjmp	.+208    	; 0x132 <__bad_interrupt>
      62:	00 00       	nop
      64:	66 c0       	rjmp	.+204    	; 0x132 <__bad_interrupt>
      66:	00 00       	nop
      68:	64 c0       	rjmp	.+200    	; 0x132 <__bad_interrupt>
      6a:	00 00       	nop
      6c:	62 c0       	rjmp	.+196    	; 0x132 <__bad_interrupt>
      6e:	00 00       	nop
      70:	60 c0       	rjmp	.+192    	; 0x132 <__bad_interrupt>
      72:	00 00       	nop
      74:	5e c0       	rjmp	.+188    	; 0x132 <__bad_interrupt>
      76:	00 00       	nop
      78:	5c c0       	rjmp	.+184    	; 0x132 <__bad_interrupt>
      7a:	00 00       	nop
      7c:	5a c0       	rjmp	.+180    	; 0x132 <__bad_interrupt>
      7e:	00 00       	nop
      80:	58 c0       	rjmp	.+176    	; 0x132 <__bad_interrupt>
      82:	00 00       	nop
      84:	56 c0       	rjmp	.+172    	; 0x132 <__bad_interrupt>
      86:	00 00       	nop
      88:	54 c0       	rjmp	.+168    	; 0x132 <__bad_interrupt>
      8a:	00 00       	nop
      8c:	52 c0       	rjmp	.+164    	; 0x132 <__bad_interrupt>
      8e:	00 00       	nop
      90:	50 c0       	rjmp	.+160    	; 0x132 <__bad_interrupt>
      92:	00 00       	nop
      94:	4e c0       	rjmp	.+156    	; 0x132 <__bad_interrupt>
      96:	00 00       	nop
      98:	4c c0       	rjmp	.+152    	; 0x132 <__bad_interrupt>
      9a:	00 00       	nop
      9c:	4a c0       	rjmp	.+148    	; 0x132 <__bad_interrupt>
      9e:	00 00       	nop
      a0:	48 c0       	rjmp	.+144    	; 0x132 <__bad_interrupt>
      a2:	00 00       	nop
      a4:	46 c0       	rjmp	.+140    	; 0x132 <__bad_interrupt>
      a6:	00 00       	nop
      a8:	44 c0       	rjmp	.+136    	; 0x132 <__bad_interrupt>
      aa:	00 00       	nop
      ac:	42 c0       	rjmp	.+132    	; 0x132 <__bad_interrupt>
      ae:	00 00       	nop
      b0:	40 c0       	rjmp	.+128    	; 0x132 <__bad_interrupt>
      b2:	00 00       	nop
      b4:	3e c0       	rjmp	.+124    	; 0x132 <__bad_interrupt>
      b6:	00 00       	nop
      b8:	3c c0       	rjmp	.+120    	; 0x132 <__bad_interrupt>
      ba:	00 00       	nop
      bc:	3a c0       	rjmp	.+116    	; 0x132 <__bad_interrupt>
      be:	00 00       	nop
      c0:	38 c0       	rjmp	.+112    	; 0x132 <__bad_interrupt>
      c2:	00 00       	nop
      c4:	36 c0       	rjmp	.+108    	; 0x132 <__bad_interrupt>
      c6:	00 00       	nop
      c8:	34 c0       	rjmp	.+104    	; 0x132 <__bad_interrupt>
      ca:	00 00       	nop
      cc:	32 c0       	rjmp	.+100    	; 0x132 <__bad_interrupt>
      ce:	00 00       	nop
      d0:	30 c0       	rjmp	.+96     	; 0x132 <__bad_interrupt>
      d2:	00 00       	nop
      d4:	2e c0       	rjmp	.+92     	; 0x132 <__bad_interrupt>
      d6:	00 00       	nop
      d8:	2c c0       	rjmp	.+88     	; 0x132 <__bad_interrupt>
      da:	00 00       	nop
      dc:	2a c0       	rjmp	.+84     	; 0x132 <__bad_interrupt>
      de:	00 00       	nop
      e0:	28 c0       	rjmp	.+80     	; 0x132 <__bad_interrupt>
      e2:	00 00       	nop
      e4:	93 03       	fmuls	r17, r19
      e6:	b4 03       	fmuls	r19, r20
      e8:	2b 04       	cpc	r2, r11
      ea:	37 04       	cpc	r3, r7
      ec:	3c 04       	cpc	r3, r12
      ee:	a0 04       	cpc	r10, r0
      f0:	c7 04       	cpc	r12, r7

000000f2 <__ctors_end>:
      f2:	11 24       	eor	r1, r1
      f4:	1f be       	out	0x3f, r1	; 63
      f6:	cf ef       	ldi	r28, 0xFF	; 255
      f8:	d1 e2       	ldi	r29, 0x21	; 33
      fa:	de bf       	out	0x3e, r29	; 62
      fc:	cd bf       	out	0x3d, r28	; 61
      fe:	00 e0       	ldi	r16, 0x00	; 0
     100:	0c bf       	out	0x3c, r16	; 60

00000102 <__do_copy_data>:
     102:	13 e0       	ldi	r17, 0x03	; 3
     104:	a0 e0       	ldi	r26, 0x00	; 0
     106:	b2 e0       	ldi	r27, 0x02	; 2
     108:	ec ea       	ldi	r30, 0xAC	; 172
     10a:	fa e1       	ldi	r31, 0x1A	; 26
     10c:	00 e0       	ldi	r16, 0x00	; 0
     10e:	0b bf       	out	0x3b, r16	; 59
     110:	02 c0       	rjmp	.+4      	; 0x116 <__do_copy_data+0x14>
     112:	07 90       	elpm	r0, Z+
     114:	0d 92       	st	X+, r0
     116:	aa 30       	cpi	r26, 0x0A	; 10
     118:	b1 07       	cpc	r27, r17
     11a:	d9 f7       	brne	.-10     	; 0x112 <__do_copy_data+0x10>

0000011c <__do_clear_bss>:
     11c:	23 e0       	ldi	r18, 0x03	; 3
     11e:	aa e0       	ldi	r26, 0x0A	; 10
     120:	b3 e0       	ldi	r27, 0x03	; 3
     122:	01 c0       	rjmp	.+2      	; 0x126 <.do_clear_bss_start>

00000124 <.do_clear_bss_loop>:
     124:	1d 92       	st	X+, r1

00000126 <.do_clear_bss_start>:
     126:	a8 38       	cpi	r26, 0x88	; 136
     128:	b2 07       	cpc	r27, r18
     12a:	e1 f7       	brne	.-8      	; 0x124 <.do_clear_bss_loop>
     12c:	03 d0       	rcall	.+6      	; 0x134 <main>
     12e:	0c 94 54 0d 	jmp	0x1aa8	; 0x1aa8 <_exit>

00000132 <__bad_interrupt>:
     132:	66 cf       	rjmp	.-308    	; 0x0 <__vectors>

00000134 <main>:
 */ 

#include "ucBoardDriver.h"


int main(void){	
     134:	cf 93       	push	r28
     136:	df 93       	push	r29
     138:	cd b7       	in	r28, 0x3d	; 61
     13a:	de b7       	in	r29, 0x3e	; 62
     13c:	ce 54       	subi	r28, 0x4E	; 78
     13e:	d1 09       	sbc	r29, r1
     140:	0f b6       	in	r0, 0x3f	; 63
     142:	f8 94       	cli
     144:	de bf       	out	0x3e, r29	; 62
     146:	0f be       	out	0x3f, r0	; 63
     148:	cd bf       	out	0x3d, r28	; 61
	initBoard(0);
     14a:	80 e0       	ldi	r24, 0x00	; 0
     14c:	ed d7       	rcall	.+4058   	; 0x1128 <initBoard>
		uint8_t date_day = 1;
		uint8_t month = 1;
	//entry
		uint8_t entry_flag = 0;
	//morgen oder nachmittag
		char *  AM_PM[] = {"AM","PM","24","ST","AL   ","SU"};
     14e:	8c e0       	ldi	r24, 0x0C	; 12
     150:	e0 e0       	ldi	r30, 0x00	; 0
     152:	f2 e0       	ldi	r31, 0x02	; 2
     154:	de 01       	movw	r26, r28
     156:	11 96       	adiw	r26, 0x01	; 1
     158:	01 90       	ld	r0, Z+
     15a:	0d 92       	st	X+, r0
     15c:	8a 95       	dec	r24
     15e:	e1 f7       	brne	.-8      	; 0x158 <main+0x24>
		uint8_t daytime = 0;
		uint8_t daytime_flag = 0;
	//weekdays
		char * week_days[] = {"MO","TU","WE","TH","FR","SA","SO"};
     160:	8e e0       	ldi	r24, 0x0E	; 14
     162:	ec e0       	ldi	r30, 0x0C	; 12
     164:	f2 e0       	ldi	r31, 0x02	; 2
     166:	de 01       	movw	r26, r28
     168:	1d 96       	adiw	r26, 0x0d	; 13
     16a:	01 90       	ld	r0, Z+
     16c:	0d 92       	st	X+, r0
     16e:	8a 95       	dec	r24
     170:	e1 f7       	brne	.-8      	; 0x16a <main+0x36>
		uint8_t zwischenspeicher_datum = 0;
		uint8_t zwischenspeicher_wochentag = 0;
	//clock symbol anziege wecker
		uint8_t clock_symbol = 1;
		uint8_t stripes_symbol = 2;
		const uint8_t clock_symbol_bitarray[] = {	0b00100,
     172:	88 e0       	ldi	r24, 0x08	; 8
     174:	ea e1       	ldi	r30, 0x1A	; 26
     176:	f2 e0       	ldi	r31, 0x02	; 2
     178:	de 01       	movw	r26, r28
     17a:	5b 96       	adiw	r26, 0x1b	; 27
     17c:	01 90       	ld	r0, Z+
     17e:	0d 92       	st	X+, r0
     180:	8a 95       	dec	r24
     182:	e1 f7       	brne	.-8      	; 0x17c <main+0x48>
																			0b01110,
																			0b11111,
																			0b11111,
																			0b00100,
																			0b00000};
		const uint8_t stripes_symbol_bitarray[] = {	0b00000,
     184:	88 e0       	ldi	r24, 0x08	; 8
     186:	e2 e2       	ldi	r30, 0x22	; 34
     188:	f2 e0       	ldi	r31, 0x02	; 2
     18a:	de 01       	movw	r26, r28
     18c:	93 96       	adiw	r26, 0x23	; 35
     18e:	01 90       	ld	r0, Z+
     190:	0d 92       	st	X+, r0
     192:	8a 95       	dec	r24
     194:	e1 f7       	brne	.-8      	; 0x18e <main+0x5a>
																			0b10101,
																			0b10101,
																			0b10101,
																			0b10101,
																			0b00000};
		lcdCreateCustomChar(clock_symbol,clock_symbol_bitarray);
     196:	be 01       	movw	r22, r28
     198:	65 5e       	subi	r22, 0xE5	; 229
     19a:	7f 4f       	sbci	r23, 0xFF	; 255
     19c:	81 e0       	ldi	r24, 0x01	; 1
     19e:	65 d7       	rcall	.+3786   	; 0x106a <lcdCreateCustomChar>
		lcdCreateCustomChar(stripes_symbol,stripes_symbol_bitarray);
     1a0:	be 01       	movw	r22, r28
     1a2:	6d 5d       	subi	r22, 0xDD	; 221
     1a4:	7f 4f       	sbci	r23, 0xFF	; 255
     1a6:	82 e0       	ldi	r24, 0x02	; 2
     1a8:	60 d7       	rcall	.+3776   	; 0x106a <lcdCreateCustomChar>
		uint8_t symbol_mode = 0;
	//wecker
		uint8_t wecker_modes = 0;
		uint8_t wecker_stunden = 0;
		uint8_t wecker_minuten = 0;
		uint8_t alarm_flag = 0;
     1aa:	1d ae       	std	Y+61, r1	; 0x3d
		lcdCreateCustomChar(stripes_symbol,stripes_symbol_bitarray);
		uint8_t symbol_mode = 0;
	//wecker
		uint8_t wecker_modes = 0;
		uint8_t wecker_stunden = 0;
		uint8_t wecker_minuten = 0;
     1ac:	24 96       	adiw	r28, 0x04	; 4
     1ae:	1f ae       	std	Y+63, r1	; 0x3f
     1b0:	24 97       	sbiw	r28, 0x04	; 4
		lcdCreateCustomChar(clock_symbol,clock_symbol_bitarray);
		lcdCreateCustomChar(stripes_symbol,stripes_symbol_bitarray);
		uint8_t symbol_mode = 0;
	//wecker
		uint8_t wecker_modes = 0;
		uint8_t wecker_stunden = 0;
     1b2:	22 96       	adiw	r28, 0x02	; 2
     1b4:	1f ae       	std	Y+63, r1	; 0x3f
     1b6:	22 97       	sbiw	r28, 0x02	; 2
																			0b00000};
		lcdCreateCustomChar(clock_symbol,clock_symbol_bitarray);
		lcdCreateCustomChar(stripes_symbol,stripes_symbol_bitarray);
		uint8_t symbol_mode = 0;
	//wecker
		uint8_t wecker_modes = 0;
     1b8:	23 96       	adiw	r28, 0x03	; 3
     1ba:	1f ae       	std	Y+63, r1	; 0x3f
     1bc:	23 97       	sbiw	r28, 0x03	; 3
																			0b10101,
																			0b10101,
																			0b00000};
		lcdCreateCustomChar(clock_symbol,clock_symbol_bitarray);
		lcdCreateCustomChar(stripes_symbol,stripes_symbol_bitarray);
		uint8_t symbol_mode = 0;
     1be:	1d a6       	std	Y+45, r1	; 0x2d
		uint8_t zwischenspeicher_sekunden = 0;
		uint8_t zwischenspeicher_minuten = 0;
		uint8_t zwischenspeicher_stunden = 0;
		uint8_t zwischenspeicher_monate = 1;
		uint8_t zwischenspeicher_datum = 0;
		uint8_t zwischenspeicher_wochentag = 0;
     1c0:	2e 96       	adiw	r28, 0x0e	; 14
     1c2:	1f ae       	std	Y+63, r1	; 0x3f
     1c4:	2e 97       	sbiw	r28, 0x0e	; 14
		uint8_t kalender_modes = 0;
		uint8_t zwischenspeicher_sekunden = 0;
		uint8_t zwischenspeicher_minuten = 0;
		uint8_t zwischenspeicher_stunden = 0;
		uint8_t zwischenspeicher_monate = 1;
		uint8_t zwischenspeicher_datum = 0;
     1c6:	2d 96       	adiw	r28, 0x0d	; 13
     1c8:	1f ae       	std	Y+63, r1	; 0x3f
     1ca:	2d 97       	sbiw	r28, 0x0d	; 13
	//kalender
		uint8_t kalender_modes = 0;
		uint8_t zwischenspeicher_sekunden = 0;
		uint8_t zwischenspeicher_minuten = 0;
		uint8_t zwischenspeicher_stunden = 0;
		uint8_t zwischenspeicher_monate = 1;
     1cc:	21 e0       	ldi	r18, 0x01	; 1
     1ce:	2c 96       	adiw	r28, 0x0c	; 12
     1d0:	2f af       	std	Y+63, r18	; 0x3f
     1d2:	2c 97       	sbiw	r28, 0x0c	; 12
		uint8_t stop_watch_mini_modes = 0;
	//kalender
		uint8_t kalender_modes = 0;
		uint8_t zwischenspeicher_sekunden = 0;
		uint8_t zwischenspeicher_minuten = 0;
		uint8_t zwischenspeicher_stunden = 0;
     1d4:	28 96       	adiw	r28, 0x08	; 8
     1d6:	1f ae       	std	Y+63, r1	; 0x3f
     1d8:	28 97       	sbiw	r28, 0x08	; 8
		uint8_t stopwatch_minutes = 0;
		uint8_t stop_watch_mini_modes = 0;
	//kalender
		uint8_t kalender_modes = 0;
		uint8_t zwischenspeicher_sekunden = 0;
		uint8_t zwischenspeicher_minuten = 0;
     1da:	2b 96       	adiw	r28, 0x0b	; 11
     1dc:	1f ae       	std	Y+63, r1	; 0x3f
     1de:	2b 97       	sbiw	r28, 0x0b	; 11
		uint8_t stopwatch_seconds = 0;
		uint8_t stopwatch_minutes = 0;
		uint8_t stop_watch_mini_modes = 0;
	//kalender
		uint8_t kalender_modes = 0;
		uint8_t zwischenspeicher_sekunden = 0;
     1e0:	2a 96       	adiw	r28, 0x0a	; 10
     1e2:	1f ae       	std	Y+63, r1	; 0x3f
     1e4:	2a 97       	sbiw	r28, 0x0a	; 10
		uint8_t stopwatch_hundredths = 0;
		uint8_t stopwatch_seconds = 0;
		uint8_t stopwatch_minutes = 0;
		uint8_t stop_watch_mini_modes = 0;
	//kalender
		uint8_t kalender_modes = 0;
     1e6:	1f ae       	std	Y+63, r1	; 0x3f
		uint8_t clock_light = 0;
	//stopwatch
		uint8_t stopwatch_hundredths = 0;
		uint8_t stopwatch_seconds = 0;
		uint8_t stopwatch_minutes = 0;
		uint8_t stop_watch_mini_modes = 0;
     1e8:	25 96       	adiw	r28, 0x05	; 5
     1ea:	1f ae       	std	Y+63, r1	; 0x3f
     1ec:	25 97       	sbiw	r28, 0x05	; 5
	//clock light
		uint8_t clock_light = 0;
	//stopwatch
		uint8_t stopwatch_hundredths = 0;
		uint8_t stopwatch_seconds = 0;
		uint8_t stopwatch_minutes = 0;
     1ee:	2f 96       	adiw	r28, 0x0f	; 15
     1f0:	1f ae       	std	Y+63, r1	; 0x3f
     1f2:	2f 97       	sbiw	r28, 0x0f	; 15
		uint8_t button_c = 0;
	//clock light
		uint8_t clock_light = 0;
	//stopwatch
		uint8_t stopwatch_hundredths = 0;
		uint8_t stopwatch_seconds = 0;
     1f4:	29 96       	adiw	r28, 0x09	; 9
     1f6:	1f ae       	std	Y+63, r1	; 0x3f
     1f8:	29 97       	sbiw	r28, 0x09	; 9
		uint8_t button_L = 0;
		uint8_t button_c = 0;
	//clock light
		uint8_t clock_light = 0;
	//stopwatch
		uint8_t stopwatch_hundredths = 0;
     1fa:	27 96       	adiw	r28, 0x07	; 7
     1fc:	1f ae       	std	Y+63, r1	; 0x3f
     1fe:	27 97       	sbiw	r28, 0x07	; 7
		uint8_t buttons_pos_flanke = 0;
		uint8_t button_A = 0;
		uint8_t button_L = 0;
		uint8_t button_c = 0;
	//clock light
		uint8_t clock_light = 0;
     200:	21 2c       	mov	r2, r1
	//weekdays
		char * week_days[] = {"MO","TU","WE","TH","FR","SA","SO"};
		uint8_t day_of_the_week = 0;
	//buttons
		uint8_t buttons = 0;
		uint8_t buttons_neu = 0;
     202:	80 e0       	ldi	r24, 0x00	; 0
		char *  AM_PM[] = {"AM","PM","24","ST","AL   ","SU"};
		uint8_t daytime = 0;
		uint8_t daytime_flag = 0;
	//weekdays
		char * week_days[] = {"MO","TU","WE","TH","FR","SA","SO"};
		uint8_t day_of_the_week = 0;
     204:	21 96       	adiw	r28, 0x01	; 1
     206:	1f ae       	std	Y+63, r1	; 0x3f
     208:	21 97       	sbiw	r28, 0x01	; 1
	//entry
		uint8_t entry_flag = 0;
	//morgen oder nachmittag
		char *  AM_PM[] = {"AM","PM","24","ST","AL   ","SU"};
		uint8_t daytime = 0;
		uint8_t daytime_flag = 0;
     20a:	1c aa       	std	Y+52, r1	; 0x34
		uint8_t month = 1;
	//entry
		uint8_t entry_flag = 0;
	//morgen oder nachmittag
		char *  AM_PM[] = {"AM","PM","24","ST","AL   ","SU"};
		uint8_t daytime = 0;
     20c:	1e ae       	std	Y+62, r1	; 0x3e
		uint8_t milisecond = 0;
	//dates
		uint8_t date_day = 1;
		uint8_t month = 1;
	//entry
		uint8_t entry_flag = 0;
     20e:	26 96       	adiw	r28, 0x06	; 6
     210:	1f ae       	std	Y+63, r1	; 0x3f
     212:	26 97       	sbiw	r28, 0x06	; 6
		uint8_t minutes = 0;
		uint8_t seconds = 0;
		uint8_t milisecond = 0;
	//dates
		uint8_t date_day = 1;
		uint8_t month = 1;
     214:	31 e0       	ldi	r19, 0x01	; 1
     216:	3b a7       	std	Y+43, r19	; 0x2b
		uint8_t hour_12h = 0;
		uint8_t minutes = 0;
		uint8_t seconds = 0;
		uint8_t milisecond = 0;
	//dates
		uint8_t date_day = 1;
     218:	51 e0       	ldi	r21, 0x01	; 1
     21a:	5f a7       	std	Y+47, r21	; 0x2f
		uint8_t twelve_twentyfour = 0;
	//time anzeige
		uint8_t hour_24h = 0;
		uint8_t hour_12h = 0;
		uint8_t minutes = 0;
		uint8_t seconds = 0;
     21c:	18 aa       	std	Y+48, r1	; 0x30
		uint8_t clock_modes = 0;
		uint8_t twelve_twentyfour = 0;
	//time anzeige
		uint8_t hour_24h = 0;
		uint8_t hour_12h = 0;
		uint8_t minutes = 0;
     21e:	1c a6       	std	Y+44, r1	; 0x2c
		uint64_t clock = 0;
		uint8_t clock_modes = 0;
		uint8_t twelve_twentyfour = 0;
	//time anzeige
		uint8_t hour_24h = 0;
		uint8_t hour_12h = 0;
     220:	1e a6       	std	Y+46, r1	; 0x2e
	//uhr
		uint64_t clock = 0;
		uint8_t clock_modes = 0;
		uint8_t twelve_twentyfour = 0;
	//time anzeige
		uint8_t hour_24h = 0;
     222:	91 2c       	mov	r9, r1
	initBoard(0);
	
	//uhr
		uint64_t clock = 0;
		uint8_t clock_modes = 0;
		uint8_t twelve_twentyfour = 0;
     224:	19 aa       	std	Y+49, r1	; 0x31
int main(void){	
	initBoard(0);
	
	//uhr
		uint64_t clock = 0;
		uint8_t clock_modes = 0;
     226:	81 2c       	mov	r8, r1

int main(void){	
	initBoard(0);
	
	//uhr
		uint64_t clock = 0;
     228:	1d aa       	std	Y+53, r1	; 0x35
     22a:	1e aa       	std	Y+54, r1	; 0x36
     22c:	1f aa       	std	Y+55, r1	; 0x37
     22e:	18 ae       	std	Y+56, r1	; 0x38
     230:	19 ae       	std	Y+57, r1	; 0x39
     232:	1a ae       	std	Y+58, r1	; 0x3a
     234:	1b ae       	std	Y+59, r1	; 0x3b
     236:	1c ae       	std	Y+60, r1	; 0x3c
     238:	01 c0       	rjmp	.+2      	; 0x23c <main+0x108>
     23a:	83 2d       	mov	r24, r3
		uint8_t wecker_minuten = 0;
		uint8_t alarm_flag = 0;
		
    while (1) {
//Eingabe
	buttons = PINL;
     23c:	30 90 09 01 	lds	r3, 0x0109	; 0x800109 <__TEXT_REGION_LENGTH__+0x7c0109>
	buttons_alt = buttons_neu;
	buttons_neu = buttons;
	buttons_flanke = buttons_neu ^ buttons_alt;
     240:	83 25       	eor	r24, r3
	buttons_pos_flanke = buttons_flanke & buttons_neu;
     242:	83 21       	and	r24, r3
	button_A = (buttons_pos_flanke & 0b10000000)>0;
     244:	98 2f       	mov	r25, r24
     246:	90 78       	andi	r25, 0x80	; 128
     248:	49 2e       	mov	r4, r25
     24a:	51 2c       	mov	r5, r1
	button_L = (buttons_pos_flanke & 0b0001)>0;
     24c:	80 fb       	bst	r24, 0
     24e:	66 24       	eor	r6, r6
     250:	60 f8       	bld	r6, 0
     252:	71 2c       	mov	r7, r1
	button_c = (buttons_pos_flanke & 0b0010)>0;
     254:	82 70       	andi	r24, 0x02	; 2
     256:	e8 2f       	mov	r30, r24
     258:	f0 e0       	ldi	r31, 0x00	; 0
     25a:	fb ab       	std	Y+51, r31	; 0x33
//Verarbeitung
	//umrechnung
		//umrechnung zeiten
		if((getSystemTimeMs()-clock) >=1000){
     25c:	ea ab       	std	Y+50, r30	; 0x32
     25e:	d4 d5       	rcall	.+2984   	; 0xe08 <getSystemTimeMs>
     260:	ad a8       	ldd	r10, Y+53	; 0x35
     262:	be a8       	ldd	r11, Y+54	; 0x36
     264:	cf a8       	ldd	r12, Y+55	; 0x37
     266:	d8 ac       	ldd	r13, Y+56	; 0x38
     268:	e9 ac       	ldd	r14, Y+57	; 0x39
     26a:	fa ac       	ldd	r15, Y+58	; 0x3a
     26c:	0b ad       	ldd	r16, Y+59	; 0x3b
     26e:	1c ad       	ldd	r17, Y+60	; 0x3c
     270:	0e 94 5a 0a 	call	0x14b4	; 0x14b4 <__subdi3>
     274:	27 3e       	cpi	r18, 0xE7	; 231
     276:	33 40       	sbci	r19, 0x03	; 3
     278:	41 05       	cpc	r20, r1
     27a:	51 05       	cpc	r21, r1
     27c:	61 05       	cpc	r22, r1
     27e:	71 05       	cpc	r23, r1
     280:	81 05       	cpc	r24, r1
     282:	91 05       	cpc	r25, r1
     284:	69 f0       	breq	.+26     	; 0x2a0 <main+0x16c>
     286:	60 f0       	brcs	.+24     	; 0x2a0 <main+0x16c>
			seconds += 1;
     288:	28 a9       	ldd	r18, Y+48	; 0x30
     28a:	2f 5f       	subi	r18, 0xFF	; 255
			clock = getSystemTimeMs();
     28c:	28 ab       	std	Y+48, r18	; 0x30
     28e:	bc d5       	rcall	.+2936   	; 0xe08 <getSystemTimeMs>
     290:	2d ab       	std	Y+53, r18	; 0x35
     292:	3e ab       	std	Y+54, r19	; 0x36
     294:	4f ab       	std	Y+55, r20	; 0x37
     296:	58 af       	std	Y+56, r21	; 0x38
     298:	69 af       	std	Y+57, r22	; 0x39
     29a:	7a af       	std	Y+58, r23	; 0x3a
     29c:	8b af       	std	Y+59, r24	; 0x3b
     29e:	9c af       	std	Y+60, r25	; 0x3c
		}
		if(minutes > 59){
     2a0:	3c a5       	ldd	r19, Y+44	; 0x2c
     2a2:	3c 33       	cpi	r19, 0x3C	; 60
     2a4:	28 f0       	brcs	.+10     	; 0x2b0 <main+0x17c>
			minutes = 0;
			hour_12h += 1;
     2a6:	5e a5       	ldd	r21, Y+46	; 0x2e
     2a8:	5f 5f       	subi	r21, 0xFF	; 255
     2aa:	5e a7       	std	Y+46, r21	; 0x2e
			hour_24h += 1;
     2ac:	93 94       	inc	r9
		if((getSystemTimeMs()-clock) >=1000){
			seconds += 1;
			clock = getSystemTimeMs();
		}
		if(minutes > 59){
			minutes = 0;
     2ae:	1c a6       	std	Y+44, r1	; 0x2c
			hour_12h += 1;
			hour_24h += 1;
		}
		if(seconds > 59){
     2b0:	68 a9       	ldd	r22, Y+48	; 0x30
     2b2:	6c 33       	cpi	r22, 0x3C	; 60
     2b4:	20 f0       	brcs	.+8      	; 0x2be <main+0x18a>
			minutes += 1;
     2b6:	8c a5       	ldd	r24, Y+44	; 0x2c
     2b8:	8f 5f       	subi	r24, 0xFF	; 255
     2ba:	8c a7       	std	Y+44, r24	; 0x2c
			seconds = 0;
     2bc:	18 aa       	std	Y+48, r1	; 0x30
		}
		//12h uhr
		if(hour_12h > 11){
     2be:	9e a5       	ldd	r25, Y+46	; 0x2e
     2c0:	9c 30       	cpi	r25, 0x0C	; 12
     2c2:	28 f0       	brcs	.+10     	; 0x2ce <main+0x19a>
			hour_12h = 0;
			daytime_flag = daytime_flag ^ 1;
     2c4:	81 e0       	ldi	r24, 0x01	; 1
     2c6:	ec a9       	ldd	r30, Y+52	; 0x34
     2c8:	e8 27       	eor	r30, r24
     2ca:	ec ab       	std	Y+52, r30	; 0x34
			minutes += 1;
			seconds = 0;
		}
		//12h uhr
		if(hour_12h > 11){
			hour_12h = 0;
     2cc:	1e a6       	std	Y+46, r1	; 0x2e
			daytime_flag = daytime_flag ^ 1;
		}
		//24h Uhr
		if(hour_24h > 23){
     2ce:	f7 e1       	ldi	r31, 0x17	; 23
     2d0:	f9 15       	cp	r31, r9
     2d2:	38 f4       	brcc	.+14     	; 0x2e2 <main+0x1ae>
			hour_24h = 0;
			day_of_the_week = 0;
			date_day += 1;
     2d4:	2f a5       	ldd	r18, Y+47	; 0x2f
     2d6:	2f 5f       	subi	r18, 0xFF	; 255
     2d8:	2f a7       	std	Y+47, r18	; 0x2f
			daytime_flag = daytime_flag ^ 1;
		}
		//24h Uhr
		if(hour_24h > 23){
			hour_24h = 0;
			day_of_the_week = 0;
     2da:	21 96       	adiw	r28, 0x01	; 1
     2dc:	1f ae       	std	Y+63, r1	; 0x3f
     2de:	21 97       	sbiw	r28, 0x01	; 1
			hour_12h = 0;
			daytime_flag = daytime_flag ^ 1;
		}
		//24h Uhr
		if(hour_24h > 23){
			hour_24h = 0;
     2e0:	91 2c       	mov	r9, r1
			day_of_the_week = 0;
			date_day += 1;
		}
		//alle tage im monat vorbei
		if(!month | (month == 2)|(month==4)|(month==6)|(month==7)|(month==9)|(month==11) ){
     2e2:	41 e0       	ldi	r20, 0x01	; 1
     2e4:	3b a5       	ldd	r19, Y+43	; 0x2b
     2e6:	31 11       	cpse	r19, r1
     2e8:	40 e0       	ldi	r20, 0x00	; 0
     2ea:	31 e0       	ldi	r19, 0x01	; 1
     2ec:	5b a5       	ldd	r21, Y+43	; 0x2b
     2ee:	52 30       	cpi	r21, 0x02	; 2
     2f0:	09 f0       	breq	.+2      	; 0x2f4 <main+0x1c0>
     2f2:	30 e0       	ldi	r19, 0x00	; 0
     2f4:	43 2b       	or	r20, r19
     2f6:	31 e0       	ldi	r19, 0x01	; 1
     2f8:	6b a5       	ldd	r22, Y+43	; 0x2b
     2fa:	64 30       	cpi	r22, 0x04	; 4
     2fc:	09 f0       	breq	.+2      	; 0x300 <main+0x1cc>
     2fe:	30 e0       	ldi	r19, 0x00	; 0
     300:	21 e0       	ldi	r18, 0x01	; 1
     302:	8b a5       	ldd	r24, Y+43	; 0x2b
     304:	86 30       	cpi	r24, 0x06	; 6
     306:	09 f0       	breq	.+2      	; 0x30a <main+0x1d6>
     308:	20 e0       	ldi	r18, 0x00	; 0
     30a:	91 e0       	ldi	r25, 0x01	; 1
     30c:	eb a5       	ldd	r30, Y+43	; 0x2b
     30e:	e7 30       	cpi	r30, 0x07	; 7
     310:	09 f0       	breq	.+2      	; 0x314 <main+0x1e0>
     312:	90 e0       	ldi	r25, 0x00	; 0
     314:	81 e0       	ldi	r24, 0x01	; 1
     316:	fb a5       	ldd	r31, Y+43	; 0x2b
     318:	f9 30       	cpi	r31, 0x09	; 9
     31a:	09 f0       	breq	.+2      	; 0x31e <main+0x1ea>
     31c:	80 e0       	ldi	r24, 0x00	; 0
     31e:	51 e0       	ldi	r21, 0x01	; 1
     320:	6b a5       	ldd	r22, Y+43	; 0x2b
     322:	6b 30       	cpi	r22, 0x0B	; 11
     324:	09 f0       	breq	.+2      	; 0x328 <main+0x1f4>
     326:	50 e0       	ldi	r21, 0x00	; 0
     328:	34 2b       	or	r19, r20
     32a:	23 2b       	or	r18, r19
     32c:	92 2b       	or	r25, r18
     32e:	89 2b       	or	r24, r25
     330:	11 f4       	brne	.+4      	; 0x336 <main+0x202>
     332:	55 23       	and	r21, r21
     334:	49 f0       	breq	.+18     	; 0x348 <main+0x214>
			if(date_day > 31){
     336:	8f a5       	ldd	r24, Y+47	; 0x2f
     338:	80 32       	cpi	r24, 0x20	; 32
     33a:	90 f1       	brcs	.+100    	; 0x3a0 <main+0x26c>
				date_day = 1;
				month += 1;
     33c:	9b a5       	ldd	r25, Y+43	; 0x2b
     33e:	9f 5f       	subi	r25, 0xFF	; 255
     340:	9b a7       	std	Y+43, r25	; 0x2b
			date_day += 1;
		}
		//alle tage im monat vorbei
		if(!month | (month == 2)|(month==4)|(month==6)|(month==7)|(month==9)|(month==11) ){
			if(date_day > 31){
				date_day = 1;
     342:	e1 e0       	ldi	r30, 0x01	; 1
     344:	ef a7       	std	Y+47, r30	; 0x2f
     346:	2c c0       	rjmp	.+88     	; 0x3a0 <main+0x26c>
				month += 1;
			}
		}
		else if((month==3)|(month==5)|(month==8)|(month==10)){
     348:	91 e0       	ldi	r25, 0x01	; 1
     34a:	fb a5       	ldd	r31, Y+43	; 0x2b
     34c:	f3 30       	cpi	r31, 0x03	; 3
     34e:	09 f0       	breq	.+2      	; 0x352 <main+0x21e>
     350:	90 e0       	ldi	r25, 0x00	; 0
     352:	81 e0       	ldi	r24, 0x01	; 1
     354:	2b a5       	ldd	r18, Y+43	; 0x2b
     356:	25 30       	cpi	r18, 0x05	; 5
     358:	09 f0       	breq	.+2      	; 0x35c <main+0x228>
     35a:	80 e0       	ldi	r24, 0x00	; 0
     35c:	98 2b       	or	r25, r24
     35e:	81 e0       	ldi	r24, 0x01	; 1
     360:	3b a5       	ldd	r19, Y+43	; 0x2b
     362:	38 30       	cpi	r19, 0x08	; 8
     364:	09 f0       	breq	.+2      	; 0x368 <main+0x234>
     366:	80 e0       	ldi	r24, 0x00	; 0
     368:	21 e0       	ldi	r18, 0x01	; 1
     36a:	5b a5       	ldd	r21, Y+43	; 0x2b
     36c:	5a 30       	cpi	r21, 0x0A	; 10
     36e:	09 f0       	breq	.+2      	; 0x372 <main+0x23e>
     370:	20 e0       	ldi	r18, 0x00	; 0
     372:	89 2b       	or	r24, r25
     374:	11 f4       	brne	.+4      	; 0x37a <main+0x246>
     376:	22 23       	and	r18, r18
     378:	49 f0       	breq	.+18     	; 0x38c <main+0x258>
			if(date_day > 30){
     37a:	6f a5       	ldd	r22, Y+47	; 0x2f
     37c:	6f 31       	cpi	r22, 0x1F	; 31
     37e:	80 f0       	brcs	.+32     	; 0x3a0 <main+0x26c>
				date_day = 1;
				month += 1;
     380:	8b a5       	ldd	r24, Y+43	; 0x2b
     382:	8f 5f       	subi	r24, 0xFF	; 255
     384:	8b a7       	std	Y+43, r24	; 0x2b
				month += 1;
			}
		}
		else if((month==3)|(month==5)|(month==8)|(month==10)){
			if(date_day > 30){
				date_day = 1;
     386:	91 e0       	ldi	r25, 0x01	; 1
     388:	9f a7       	std	Y+47, r25	; 0x2f
     38a:	0a c0       	rjmp	.+20     	; 0x3a0 <main+0x26c>
				month += 1;
			}
		}
		else if((month==1)){
     38c:	eb a5       	ldd	r30, Y+43	; 0x2b
     38e:	e1 30       	cpi	r30, 0x01	; 1
     390:	39 f4       	brne	.+14     	; 0x3a0 <main+0x26c>
			if(date_day > 28){
     392:	ff a5       	ldd	r31, Y+47	; 0x2f
     394:	fd 31       	cpi	r31, 0x1D	; 29
     396:	20 f0       	brcs	.+8      	; 0x3a0 <main+0x26c>
				date_day = 1;
				month += 1;
     398:	ef 5f       	subi	r30, 0xFF	; 255
     39a:	eb a7       	std	Y+43, r30	; 0x2b
				month += 1;
			}
		}
		else if((month==1)){
			if(date_day > 28){
				date_day = 1;
     39c:	21 e0       	ldi	r18, 0x01	; 1
     39e:	2f a7       	std	Y+47, r18	; 0x2f
				month += 1;
			}
		}
		//Monats overflow
		if(month>12){
     3a0:	3b a5       	ldd	r19, Y+43	; 0x2b
     3a2:	3d 30       	cpi	r19, 0x0D	; 13
     3a4:	10 f0       	brcs	.+4      	; 0x3aa <main+0x276>
			month = 1;
     3a6:	51 e0       	ldi	r21, 0x01	; 1
     3a8:	5b a7       	std	Y+43, r21	; 0x2b
		}
		//wechsel zwischen 12 und 24h modus
		if(button_A && (!clock_modes)){
     3aa:	14 14       	cp	r1, r4
     3ac:	15 04       	cpc	r1, r5
     3ae:	3c f4       	brge	.+14     	; 0x3be <main+0x28a>
     3b0:	81 10       	cpse	r8, r1
     3b2:	05 c0       	rjmp	.+10     	; 0x3be <main+0x28a>
			twelve_twentyfour = !twelve_twentyfour;
     3b4:	81 e0       	ldi	r24, 0x01	; 1
     3b6:	69 a9       	ldd	r22, Y+49	; 0x31
     3b8:	61 11       	cpse	r22, r1
     3ba:	80 e0       	ldi	r24, 0x00	; 0
     3bc:	89 ab       	std	Y+49, r24	; 0x31
		}
		//24 wird angezeigt
		if(!twelve_twentyfour){
     3be:	89 a9       	ldd	r24, Y+49	; 0x31
     3c0:	88 23       	and	r24, r24
     3c2:	21 f0       	breq	.+8      	; 0x3cc <main+0x298>
			daytime = 2;
		}
		//AM oder PM je nach daytime flag wert wird eins der beiden angezeigt
		else{
			if(!daytime_flag){
     3c4:	9c a9       	ldd	r25, Y+52	; 0x34
     3c6:	99 23       	and	r25, r25
     3c8:	21 f0       	breq	.+8      	; 0x3d2 <main+0x29e>
     3ca:	04 c0       	rjmp	.+8      	; 0x3d4 <main+0x2a0>
		if(button_A && (!clock_modes)){
			twelve_twentyfour = !twelve_twentyfour;
		}
		//24 wird angezeigt
		if(!twelve_twentyfour){
			daytime = 2;
     3cc:	e2 e0       	ldi	r30, 0x02	; 2
     3ce:	ee af       	std	Y+62, r30	; 0x3e
     3d0:	01 c0       	rjmp	.+2      	; 0x3d4 <main+0x2a0>
		}
		//AM oder PM je nach daytime flag wert wird eins der beiden angezeigt
		else{
			if(!daytime_flag){
				daytime = 0;
     3d2:	1e ae       	std	Y+62, r1	; 0x3e
			}
		}
		//taster um das licht einzuschalten
		if(button_L){
     3d4:	16 14       	cp	r1, r6
     3d6:	17 04       	cpc	r1, r7
     3d8:	14 f4       	brge	.+4      	; 0x3de <main+0x2aa>
			clock_light = clock_light ^ 1;
     3da:	81 e0       	ldi	r24, 0x01	; 1
     3dc:	28 26       	eor	r2, r24
		}
		//anzeige der ersten reihe je nach modus
		if(!clock_modes){
     3de:	81 10       	cpse	r8, r1
     3e0:	2d c0       	rjmp	.+90     	; 0x43c <__LOCK_REGION_LENGTH__+0x3c>
			lcdWriteText(0,0,"%s %s",AM_PM[daytime],week_days[day_of_the_week]);
     3e2:	21 96       	adiw	r28, 0x01	; 1
     3e4:	2f ad       	ldd	r18, Y+63	; 0x3f
     3e6:	21 97       	sbiw	r28, 0x01	; 1
     3e8:	e2 2f       	mov	r30, r18
     3ea:	f0 e0       	ldi	r31, 0x00	; 0
     3ec:	ee 0f       	add	r30, r30
     3ee:	ff 1f       	adc	r31, r31
     3f0:	81 e0       	ldi	r24, 0x01	; 1
     3f2:	90 e0       	ldi	r25, 0x00	; 0
     3f4:	8c 0f       	add	r24, r28
     3f6:	9d 1f       	adc	r25, r29
     3f8:	e8 0f       	add	r30, r24
     3fa:	f9 1f       	adc	r31, r25
     3fc:	85 85       	ldd	r24, Z+13	; 0x0d
     3fe:	8f 93       	push	r24
     400:	84 85       	ldd	r24, Z+12	; 0x0c
     402:	8f 93       	push	r24
     404:	9e ad       	ldd	r25, Y+62	; 0x3e
     406:	e9 2f       	mov	r30, r25
     408:	f0 e0       	ldi	r31, 0x00	; 0
     40a:	ee 0f       	add	r30, r30
     40c:	ff 1f       	adc	r31, r31
     40e:	21 e0       	ldi	r18, 0x01	; 1
     410:	30 e0       	ldi	r19, 0x00	; 0
     412:	2c 0f       	add	r18, r28
     414:	3d 1f       	adc	r19, r29
     416:	e2 0f       	add	r30, r18
     418:	f3 1f       	adc	r31, r19
     41a:	81 81       	ldd	r24, Z+1	; 0x01
     41c:	8f 93       	push	r24
     41e:	80 81       	ld	r24, Z
     420:	8f 93       	push	r24
     422:	82 e3       	ldi	r24, 0x32	; 50
     424:	92 e0       	ldi	r25, 0x02	; 2
     426:	9f 93       	push	r25
     428:	8f 93       	push	r24
     42a:	1f 92       	push	r1
     42c:	1f 92       	push	r1
     42e:	e3 d5       	rcall	.+3014   	; 0xff6 <lcdWriteText>
     430:	0f b6       	in	r0, 0x3f	; 63
     432:	f8 94       	cli
     434:	de bf       	out	0x3e, r29	; 62
     436:	0f be       	out	0x3f, r0	; 63
     438:	cd bf       	out	0x3d, r28	; 61
     43a:	1d c0       	rjmp	.+58     	; 0x476 <__LOCK_REGION_LENGTH__+0x76>
		}
		else if(clock_modes == 1){
     43c:	91 e0       	ldi	r25, 0x01	; 1
     43e:	89 12       	cpse	r8, r25
     440:	0c c0       	rjmp	.+24     	; 0x45a <__LOCK_REGION_LENGTH__+0x5a>
			lcdWriteText(0,0,AM_PM[4]);
     442:	88 e3       	ldi	r24, 0x38	; 56
     444:	92 e0       	ldi	r25, 0x02	; 2
     446:	9f 93       	push	r25
     448:	8f 93       	push	r24
     44a:	1f 92       	push	r1
     44c:	1f 92       	push	r1
     44e:	d3 d5       	rcall	.+2982   	; 0xff6 <lcdWriteText>
     450:	0f 90       	pop	r0
     452:	0f 90       	pop	r0
     454:	0f 90       	pop	r0
     456:	0f 90       	pop	r0
     458:	0e c0       	rjmp	.+28     	; 0x476 <__LOCK_REGION_LENGTH__+0x76>
		}
		else if(clock_modes==2){
     45a:	e2 e0       	ldi	r30, 0x02	; 2
     45c:	8e 12       	cpse	r8, r30
     45e:	0b c0       	rjmp	.+22     	; 0x476 <__LOCK_REGION_LENGTH__+0x76>
			lcdWriteText(0,0,AM_PM[3]);
     460:	8e e3       	ldi	r24, 0x3E	; 62
     462:	92 e0       	ldi	r25, 0x02	; 2
     464:	9f 93       	push	r25
     466:	8f 93       	push	r24
     468:	1f 92       	push	r1
     46a:	1f 92       	push	r1
     46c:	c4 d5       	rcall	.+2952   	; 0xff6 <lcdWriteText>
     46e:	0f 90       	pop	r0
     470:	0f 90       	pop	r0
     472:	0f 90       	pop	r0
     474:	0f 90       	pop	r0
		}
	//wecker aktivierung
		if(!symbol_mode | (symbol_mode==3)){
     476:	91 e0       	ldi	r25, 0x01	; 1
     478:	fd a5       	ldd	r31, Y+45	; 0x2d
     47a:	f1 11       	cpse	r31, r1
     47c:	90 e0       	ldi	r25, 0x00	; 0
     47e:	81 e0       	ldi	r24, 0x01	; 1
     480:	2d a5       	ldd	r18, Y+45	; 0x2d
     482:	23 30       	cpi	r18, 0x03	; 3
     484:	09 f0       	breq	.+2      	; 0x488 <__LOCK_REGION_LENGTH__+0x88>
     486:	80 e0       	ldi	r24, 0x00	; 0
     488:	89 2b       	or	r24, r25
     48a:	a1 f0       	breq	.+40     	; 0x4b4 <__LOCK_REGION_LENGTH__+0xb4>
			if((wecker_stunden==hour_24h)&&(wecker_minuten==minutes)){
     48c:	22 96       	adiw	r28, 0x02	; 2
     48e:	3f ad       	ldd	r19, Y+63	; 0x3f
     490:	22 97       	sbiw	r28, 0x02	; 2
     492:	93 12       	cpse	r9, r19
     494:	0f c0       	rjmp	.+30     	; 0x4b4 <__LOCK_REGION_LENGTH__+0xb4>
     496:	5c a5       	ldd	r21, Y+44	; 0x2c
     498:	24 96       	adiw	r28, 0x04	; 4
     49a:	6f ad       	ldd	r22, Y+63	; 0x3f
     49c:	24 97       	sbiw	r28, 0x04	; 4
     49e:	56 13       	cpse	r21, r22
				rgbWrite(255,0,0);
     4a0:	09 c0       	rjmp	.+18     	; 0x4b4 <__LOCK_REGION_LENGTH__+0xb4>
     4a2:	40 e0       	ldi	r20, 0x00	; 0
     4a4:	50 e0       	ldi	r21, 0x00	; 0
     4a6:	60 e0       	ldi	r22, 0x00	; 0
     4a8:	70 e0       	ldi	r23, 0x00	; 0
     4aa:	8f ef       	ldi	r24, 0xFF	; 255
     4ac:	90 e0       	ldi	r25, 0x00	; 0
     4ae:	d2 d4       	rcall	.+2468   	; 0xe54 <rgbWrite>
				alarm_flag = 1;
     4b0:	81 e0       	ldi	r24, 0x01	; 1
     4b2:	8d af       	std	Y+61, r24	; 0x3d
			}
		}
		if(alarm_flag && button_L){
     4b4:	9d ad       	ldd	r25, Y+61	; 0x3d
     4b6:	99 23       	and	r25, r25
     4b8:	69 f0       	breq	.+26     	; 0x4d4 <__LOCK_REGION_LENGTH__+0xd4>
     4ba:	16 14       	cp	r1, r6
     4bc:	17 04       	cpc	r1, r7
			rgbWrite(1,255,1);
     4be:	54 f4       	brge	.+20     	; 0x4d4 <__LOCK_REGION_LENGTH__+0xd4>
     4c0:	41 e0       	ldi	r20, 0x01	; 1
     4c2:	50 e0       	ldi	r21, 0x00	; 0
     4c4:	6f ef       	ldi	r22, 0xFF	; 255
     4c6:	70 e0       	ldi	r23, 0x00	; 0
     4c8:	81 e0       	ldi	r24, 0x01	; 1
     4ca:	90 e0       	ldi	r25, 0x00	; 0
     4cc:	c3 d4       	rcall	.+2438   	; 0xe54 <rgbWrite>
			clock_light = 1;
			alarm_flag = 0;
     4ce:	1d ae       	std	Y+61, r1	; 0x3d
				alarm_flag = 1;
			}
		}
		if(alarm_flag && button_L){
			rgbWrite(1,255,1);
			clock_light = 1;
     4d0:	22 24       	eor	r2, r2
     4d2:	23 94       	inc	r2
			alarm_flag = 0;
		}
	//cases
	switch (clock_modes){
     4d4:	e1 e0       	ldi	r30, 0x01	; 1
     4d6:	8e 16       	cp	r8, r30
     4d8:	09 f4       	brne	.+2      	; 0x4dc <__LOCK_REGION_LENGTH__+0xdc>
     4da:	57 c0       	rjmp	.+174    	; 0x58a <__LOCK_REGION_LENGTH__+0x18a>
     4dc:	8e 16       	cp	r8, r30
     4de:	48 f0       	brcs	.+18     	; 0x4f2 <__LOCK_REGION_LENGTH__+0xf2>
     4e0:	f2 e0       	ldi	r31, 0x02	; 2
     4e2:	8f 16       	cp	r8, r31
     4e4:	09 f4       	brne	.+2      	; 0x4e8 <__LOCK_REGION_LENGTH__+0xe8>
     4e6:	10 c1       	rjmp	.+544    	; 0x708 <__LOCK_REGION_LENGTH__+0x308>
     4e8:	23 e0       	ldi	r18, 0x03	; 3
     4ea:	82 16       	cp	r8, r18
     4ec:	09 f4       	brne	.+2      	; 0x4f0 <__LOCK_REGION_LENGTH__+0xf0>
     4ee:	98 c2       	rjmp	.+1328   	; 0xa20 <__LOCK_REGION_LENGTH__+0x620>
     4f0:	73 c4       	rjmp	.+2278   	; 0xdd8 <__LOCK_REGION_LENGTH__+0x9d8>
		case 0:
			//time	
			lcdWriteText(0,18,"%u",date_day);
     4f2:	1f 92       	push	r1
     4f4:	3f a5       	ldd	r19, Y+47	; 0x2f
     4f6:	3f 93       	push	r19
     4f8:	81 e4       	ldi	r24, 0x41	; 65
     4fa:	92 e0       	ldi	r25, 0x02	; 2
     4fc:	9f 93       	push	r25
     4fe:	8f 93       	push	r24
     500:	82 e1       	ldi	r24, 0x12	; 18
     502:	8f 93       	push	r24
     504:	1f 92       	push	r1
     506:	77 d5       	rcall	.+2798   	; 0xff6 <lcdWriteText>
			lcdWriteText(1,2,":%02u:%02u",minutes,seconds);
     508:	1f 92       	push	r1
     50a:	58 a9       	ldd	r21, Y+48	; 0x30
     50c:	5f 93       	push	r21
     50e:	1f 92       	push	r1
     510:	6c a5       	ldd	r22, Y+44	; 0x2c
     512:	6f 93       	push	r22
     514:	8b e5       	ldi	r24, 0x5B	; 91
     516:	92 e0       	ldi	r25, 0x02	; 2
     518:	9f 93       	push	r25
     51a:	8f 93       	push	r24
     51c:	82 e0       	ldi	r24, 0x02	; 2
     51e:	8f 93       	push	r24
     520:	81 e0       	ldi	r24, 0x01	; 1
     522:	8f 93       	push	r24
     524:	68 d5       	rcall	.+2768   	; 0xff6 <lcdWriteText>
			if(!twelve_twentyfour){
     526:	0f b6       	in	r0, 0x3f	; 63
     528:	f8 94       	cli
     52a:	de bf       	out	0x3e, r29	; 62
     52c:	0f be       	out	0x3f, r0	; 63
     52e:	cd bf       	out	0x3d, r28	; 61
     530:	99 a9       	ldd	r25, Y+49	; 0x31
     532:	91 11       	cpse	r25, r1
				lcdWriteText(1,0,"%02u",hour_24h);
     534:	11 c0       	rjmp	.+34     	; 0x558 <__LOCK_REGION_LENGTH__+0x158>
     536:	1f 92       	push	r1
     538:	9f 92       	push	r9
     53a:	81 e6       	ldi	r24, 0x61	; 97
     53c:	92 e0       	ldi	r25, 0x02	; 2
     53e:	9f 93       	push	r25
     540:	8f 93       	push	r24
     542:	1f 92       	push	r1
     544:	81 e0       	ldi	r24, 0x01	; 1
     546:	8f 93       	push	r24
     548:	56 d5       	rcall	.+2732   	; 0xff6 <lcdWriteText>
     54a:	0f 90       	pop	r0
     54c:	0f 90       	pop	r0
     54e:	0f 90       	pop	r0
     550:	0f 90       	pop	r0
     552:	0f 90       	pop	r0
     554:	0f 90       	pop	r0
			}
			else{
				lcdWriteText(1,0,"%02u",hour_12h);
     556:	11 c0       	rjmp	.+34     	; 0x57a <__LOCK_REGION_LENGTH__+0x17a>
     558:	1f 92       	push	r1
     55a:	ee a5       	ldd	r30, Y+46	; 0x2e
     55c:	ef 93       	push	r30
     55e:	81 e6       	ldi	r24, 0x61	; 97
     560:	92 e0       	ldi	r25, 0x02	; 2
     562:	9f 93       	push	r25
     564:	8f 93       	push	r24
     566:	1f 92       	push	r1
     568:	81 e0       	ldi	r24, 0x01	; 1
     56a:	8f 93       	push	r24
     56c:	44 d5       	rcall	.+2696   	; 0xff6 <lcdWriteText>
     56e:	0f 90       	pop	r0
     570:	0f 90       	pop	r0
     572:	0f 90       	pop	r0
     574:	0f 90       	pop	r0
     576:	0f 90       	pop	r0
     578:	0f 90       	pop	r0
			}
			if(button_c){
     57a:	2a a9       	ldd	r18, Y+50	; 0x32
     57c:	3b a9       	ldd	r19, Y+51	; 0x33
     57e:	12 16       	cp	r1, r18
     580:	13 06       	cpc	r1, r19
     582:	0c f0       	brlt	.+2      	; 0x586 <__LOCK_REGION_LENGTH__+0x186>
     584:	29 c4       	rjmp	.+2130   	; 0xdd8 <__LOCK_REGION_LENGTH__+0x9d8>
				clock_modes += 1;
     586:	83 94       	inc	r8
     588:	27 c4       	rjmp	.+2126   	; 0xdd8 <__LOCK_REGION_LENGTH__+0x9d8>
			}
		break;
		
		case 1://daily alarm
			if(button_c){
     58a:	8a a9       	ldd	r24, Y+50	; 0x32
     58c:	9b a9       	ldd	r25, Y+51	; 0x33
     58e:	18 16       	cp	r1, r24
     590:	19 06       	cpc	r1, r25
     592:	0c f4       	brge	.+2      	; 0x596 <__LOCK_REGION_LENGTH__+0x196>
				clock_modes += 1;
     594:	83 94       	inc	r8
			}
			if(button_A && (!wecker_modes)){
     596:	14 14       	cp	r1, r4
     598:	15 04       	cpc	r1, r5
     59a:	44 f4       	brge	.+16     	; 0x5ac <__LOCK_REGION_LENGTH__+0x1ac>
     59c:	23 96       	adiw	r28, 0x03	; 3
     59e:	9f ad       	ldd	r25, Y+63	; 0x3f
     5a0:	23 97       	sbiw	r28, 0x03	; 3
     5a2:	91 11       	cpse	r25, r1
     5a4:	03 c0       	rjmp	.+6      	; 0x5ac <__LOCK_REGION_LENGTH__+0x1ac>
				symbol_mode += 1;
     5a6:	ed a5       	ldd	r30, Y+45	; 0x2d
     5a8:	ef 5f       	subi	r30, 0xFF	; 255
     5aa:	ed a7       	std	Y+45, r30	; 0x2d
			}
			if(symbol_mode >3){
     5ac:	fd a5       	ldd	r31, Y+45	; 0x2d
     5ae:	f4 30       	cpi	r31, 0x04	; 4
     5b0:	08 f0       	brcs	.+2      	; 0x5b4 <__LOCK_REGION_LENGTH__+0x1b4>
				symbol_mode = 0;
     5b2:	1d a6       	std	Y+45, r1	; 0x2d
			}
			if(!symbol_mode){
     5b4:	2d a5       	ldd	r18, Y+45	; 0x2d
     5b6:	21 11       	cpse	r18, r1
				lcdWriteText(2,0,"%c %c", stripes_symbol, clock_symbol);
     5b8:	13 c0       	rjmp	.+38     	; 0x5e0 <__LOCK_REGION_LENGTH__+0x1e0>
     5ba:	1f 92       	push	r1
     5bc:	81 e0       	ldi	r24, 0x01	; 1
     5be:	8f 93       	push	r24
     5c0:	1f 92       	push	r1
     5c2:	82 e0       	ldi	r24, 0x02	; 2
     5c4:	8f 93       	push	r24
     5c6:	24 e4       	ldi	r18, 0x44	; 68
     5c8:	32 e0       	ldi	r19, 0x02	; 2
     5ca:	3f 93       	push	r19
     5cc:	2f 93       	push	r18
     5ce:	1f 92       	push	r1
     5d0:	8f 93       	push	r24
     5d2:	11 d5       	rcall	.+2594   	; 0xff6 <lcdWriteText>
     5d4:	0f b6       	in	r0, 0x3f	; 63
     5d6:	f8 94       	cli
     5d8:	de bf       	out	0x3e, r29	; 62
     5da:	0f be       	out	0x3f, r0	; 63
     5dc:	cd bf       	out	0x3d, r28	; 61
			}
			else if(symbol_mode == 1){
     5de:	35 c0       	rjmp	.+106    	; 0x64a <__LOCK_REGION_LENGTH__+0x24a>
     5e0:	9d a5       	ldd	r25, Y+45	; 0x2d
     5e2:	91 30       	cpi	r25, 0x01	; 1
				lcdWriteText(2,0,"   ");
     5e4:	69 f4       	brne	.+26     	; 0x600 <__LOCK_REGION_LENGTH__+0x200>
     5e6:	8d e7       	ldi	r24, 0x7D	; 125
     5e8:	92 e0       	ldi	r25, 0x02	; 2
     5ea:	9f 93       	push	r25
     5ec:	8f 93       	push	r24
     5ee:	1f 92       	push	r1
     5f0:	82 e0       	ldi	r24, 0x02	; 2
     5f2:	8f 93       	push	r24
     5f4:	00 d5       	rcall	.+2560   	; 0xff6 <lcdWriteText>
     5f6:	0f 90       	pop	r0
     5f8:	0f 90       	pop	r0
     5fa:	0f 90       	pop	r0
     5fc:	0f 90       	pop	r0
			}
			else if(symbol_mode == 2){
     5fe:	25 c0       	rjmp	.+74     	; 0x64a <__LOCK_REGION_LENGTH__+0x24a>
     600:	ed a5       	ldd	r30, Y+45	; 0x2d
     602:	e2 30       	cpi	r30, 0x02	; 2
				lcdWriteText(2,0,"%c",stripes_symbol);
     604:	89 f4       	brne	.+34     	; 0x628 <__LOCK_REGION_LENGTH__+0x228>
     606:	1f 92       	push	r1
     608:	82 e0       	ldi	r24, 0x02	; 2
     60a:	8f 93       	push	r24
     60c:	27 e4       	ldi	r18, 0x47	; 71
     60e:	32 e0       	ldi	r19, 0x02	; 2
     610:	3f 93       	push	r19
     612:	2f 93       	push	r18
     614:	1f 92       	push	r1
     616:	8f 93       	push	r24
     618:	ee d4       	rcall	.+2524   	; 0xff6 <lcdWriteText>
     61a:	0f 90       	pop	r0
     61c:	0f 90       	pop	r0
     61e:	0f 90       	pop	r0
     620:	0f 90       	pop	r0
     622:	0f 90       	pop	r0
     624:	0f 90       	pop	r0
			}
			else{
				lcdWriteText(2,0,"%c", clock_symbol);
     626:	11 c0       	rjmp	.+34     	; 0x64a <__LOCK_REGION_LENGTH__+0x24a>
     628:	1f 92       	push	r1
     62a:	81 e0       	ldi	r24, 0x01	; 1
     62c:	8f 93       	push	r24
     62e:	87 e4       	ldi	r24, 0x47	; 71
     630:	92 e0       	ldi	r25, 0x02	; 2
     632:	9f 93       	push	r25
     634:	8f 93       	push	r24
     636:	1f 92       	push	r1
     638:	82 e0       	ldi	r24, 0x02	; 2
     63a:	8f 93       	push	r24
     63c:	dc d4       	rcall	.+2488   	; 0xff6 <lcdWriteText>
     63e:	0f 90       	pop	r0
     640:	0f 90       	pop	r0
     642:	0f 90       	pop	r0
     644:	0f 90       	pop	r0
     646:	0f 90       	pop	r0
     648:	0f 90       	pop	r0
			}
			lcdWriteText(1,0,"%02u:%02u   ",wecker_stunden,wecker_minuten);
     64a:	1f 92       	push	r1
     64c:	24 96       	adiw	r28, 0x04	; 4
     64e:	ff ad       	ldd	r31, Y+63	; 0x3f
     650:	24 97       	sbiw	r28, 0x04	; 4
     652:	ff 93       	push	r31
     654:	1f 92       	push	r1
     656:	22 96       	adiw	r28, 0x02	; 2
     658:	2f ad       	ldd	r18, Y+63	; 0x3f
     65a:	22 97       	sbiw	r28, 0x02	; 2
     65c:	2f 93       	push	r18
     65e:	8a e4       	ldi	r24, 0x4A	; 74
     660:	92 e0       	ldi	r25, 0x02	; 2
     662:	9f 93       	push	r25
     664:	8f 93       	push	r24
     666:	1f 92       	push	r1
     668:	81 e0       	ldi	r24, 0x01	; 1
     66a:	8f 93       	push	r24
     66c:	c4 d4       	rcall	.+2440   	; 0xff6 <lcdWriteText>
			switch (wecker_modes){
     66e:	0f b6       	in	r0, 0x3f	; 63
     670:	f8 94       	cli
     672:	de bf       	out	0x3e, r29	; 62
     674:	0f be       	out	0x3f, r0	; 63
     676:	cd bf       	out	0x3d, r28	; 61
     678:	23 96       	adiw	r28, 0x03	; 3
     67a:	9f ad       	ldd	r25, Y+63	; 0x3f
     67c:	23 97       	sbiw	r28, 0x03	; 3
     67e:	91 30       	cpi	r25, 0x01	; 1
     680:	91 f0       	breq	.+36     	; 0x6a6 <__LOCK_REGION_LENGTH__+0x2a6>
     682:	18 f0       	brcs	.+6      	; 0x68a <__LOCK_REGION_LENGTH__+0x28a>
     684:	92 30       	cpi	r25, 0x02	; 2
     686:	79 f1       	breq	.+94     	; 0x6e6 <__LOCK_REGION_LENGTH__+0x2e6>
     688:	a7 c3       	rjmp	.+1870   	; 0xdd8 <__LOCK_REGION_LENGTH__+0x9d8>
				case 0: //nichts
					
					if(button_L){
     68a:	16 14       	cp	r1, r6
     68c:	17 04       	cpc	r1, r7
     68e:	0c f0       	brlt	.+2      	; 0x692 <__LOCK_REGION_LENGTH__+0x292>
     690:	a3 c3       	rjmp	.+1862   	; 0xdd8 <__LOCK_REGION_LENGTH__+0x9d8>
						wecker_modes += 1;
     692:	23 96       	adiw	r28, 0x03	; 3
     694:	ef ad       	ldd	r30, Y+63	; 0x3f
     696:	23 97       	sbiw	r28, 0x03	; 3
     698:	ef 5f       	subi	r30, 0xFF	; 255
     69a:	23 96       	adiw	r28, 0x03	; 3
     69c:	ef af       	std	Y+63, r30	; 0x3f
     69e:	23 97       	sbiw	r28, 0x03	; 3
						clock_light = 1;
     6a0:	22 24       	eor	r2, r2
     6a2:	23 94       	inc	r2
     6a4:	99 c3       	rjmp	.+1842   	; 0xdd8 <__LOCK_REGION_LENGTH__+0x9d8>
					}
				break;
				case 1: //stunden
					if(button_A){
     6a6:	14 14       	cp	r1, r4
     6a8:	15 04       	cpc	r1, r5
     6aa:	3c f4       	brge	.+14     	; 0x6ba <__LOCK_REGION_LENGTH__+0x2ba>
						wecker_stunden += 1;
     6ac:	22 96       	adiw	r28, 0x02	; 2
     6ae:	ff ad       	ldd	r31, Y+63	; 0x3f
     6b0:	22 97       	sbiw	r28, 0x02	; 2
     6b2:	ff 5f       	subi	r31, 0xFF	; 255
     6b4:	22 96       	adiw	r28, 0x02	; 2
     6b6:	ff af       	std	Y+63, r31	; 0x3f
     6b8:	22 97       	sbiw	r28, 0x02	; 2
					}
					if(wecker_stunden>23){
     6ba:	22 96       	adiw	r28, 0x02	; 2
     6bc:	2f ad       	ldd	r18, Y+63	; 0x3f
     6be:	22 97       	sbiw	r28, 0x02	; 2
     6c0:	28 31       	cpi	r18, 0x18	; 24
     6c2:	18 f0       	brcs	.+6      	; 0x6ca <__LOCK_REGION_LENGTH__+0x2ca>
						wecker_stunden = 0;
     6c4:	22 96       	adiw	r28, 0x02	; 2
     6c6:	1f ae       	std	Y+63, r1	; 0x3f
     6c8:	22 97       	sbiw	r28, 0x02	; 2
					}
					if(button_L){
     6ca:	16 14       	cp	r1, r6
     6cc:	17 04       	cpc	r1, r7
     6ce:	0c f0       	brlt	.+2      	; 0x6d2 <__LOCK_REGION_LENGTH__+0x2d2>
     6d0:	83 c3       	rjmp	.+1798   	; 0xdd8 <__LOCK_REGION_LENGTH__+0x9d8>
						wecker_modes += 1;
     6d2:	23 96       	adiw	r28, 0x03	; 3
     6d4:	3f ad       	ldd	r19, Y+63	; 0x3f
     6d6:	23 97       	sbiw	r28, 0x03	; 3
     6d8:	3f 5f       	subi	r19, 0xFF	; 255
     6da:	23 96       	adiw	r28, 0x03	; 3
     6dc:	3f af       	std	Y+63, r19	; 0x3f
     6de:	23 97       	sbiw	r28, 0x03	; 3
						clock_light = 1;
     6e0:	22 24       	eor	r2, r2
     6e2:	23 94       	inc	r2
     6e4:	79 c3       	rjmp	.+1778   	; 0xdd8 <__LOCK_REGION_LENGTH__+0x9d8>
					}
				break;
				case 2: // minutes
					if(button_A){
     6e6:	14 14       	cp	r1, r4
     6e8:	15 04       	cpc	r1, r5
     6ea:	3c f4       	brge	.+14     	; 0x6fa <__LOCK_REGION_LENGTH__+0x2fa>
						wecker_minuten += 1;
     6ec:	24 96       	adiw	r28, 0x04	; 4
     6ee:	5f ad       	ldd	r21, Y+63	; 0x3f
     6f0:	24 97       	sbiw	r28, 0x04	; 4
     6f2:	5f 5f       	subi	r21, 0xFF	; 255
     6f4:	24 96       	adiw	r28, 0x04	; 4
     6f6:	5f af       	std	Y+63, r21	; 0x3f
     6f8:	24 97       	sbiw	r28, 0x04	; 4
					}
					if(wecker_minuten>59){
     6fa:	24 96       	adiw	r28, 0x04	; 4
     6fc:	6f ad       	ldd	r22, Y+63	; 0x3f
     6fe:	24 97       	sbiw	r28, 0x04	; 4
     700:	6c 33       	cpi	r22, 0x3C	; 60
     702:	08 f0       	brcs	.+2      	; 0x706 <__LOCK_REGION_LENGTH__+0x306>
     704:	2b c3       	rjmp	.+1622   	; 0xd5c <__LOCK_REGION_LENGTH__+0x95c>
			
			
		break;
		
		case 2://Stopwatch
			switch(stop_watch_mini_modes){
     706:	68 c3       	rjmp	.+1744   	; 0xdd8 <__LOCK_REGION_LENGTH__+0x9d8>
     708:	25 96       	adiw	r28, 0x05	; 5
     70a:	ef ad       	ldd	r30, Y+63	; 0x3f
     70c:	25 97       	sbiw	r28, 0x05	; 5
     70e:	8e 2f       	mov	r24, r30
     710:	90 e0       	ldi	r25, 0x00	; 0
     712:	87 30       	cpi	r24, 0x07	; 7
     714:	91 05       	cpc	r25, r1
     716:	08 f0       	brcs	.+2      	; 0x71a <__LOCK_REGION_LENGTH__+0x31a>
     718:	7b c1       	rjmp	.+758    	; 0xa10 <__LOCK_REGION_LENGTH__+0x610>
     71a:	fc 01       	movw	r30, r24
     71c:	88 27       	eor	r24, r24
     71e:	ee 58       	subi	r30, 0x8E	; 142
     720:	ff 4f       	sbci	r31, 0xFF	; 255
     722:	8f 4f       	sbci	r24, 0xFF	; 255
     724:	b3 c6       	rjmp	.+3430   	; 0x148c <__tablejump2__>
				case 0: //normal mode no counting
					lcdWriteText(1,0,"%02u:%02u:%02u",stopwatch_minutes,stopwatch_seconds,stopwatch_hundredths);
     726:	1f 92       	push	r1
     728:	27 96       	adiw	r28, 0x07	; 7
     72a:	ff ad       	ldd	r31, Y+63	; 0x3f
     72c:	27 97       	sbiw	r28, 0x07	; 7
     72e:	ff 93       	push	r31
     730:	1f 92       	push	r1
     732:	29 96       	adiw	r28, 0x09	; 9
     734:	2f ad       	ldd	r18, Y+63	; 0x3f
     736:	29 97       	sbiw	r28, 0x09	; 9
     738:	2f 93       	push	r18
     73a:	1f 92       	push	r1
     73c:	2f 96       	adiw	r28, 0x0f	; 15
     73e:	3f ad       	ldd	r19, Y+63	; 0x3f
     740:	2f 97       	sbiw	r28, 0x0f	; 15
     742:	3f 93       	push	r19
     744:	87 e5       	ldi	r24, 0x57	; 87
     746:	92 e0       	ldi	r25, 0x02	; 2
     748:	9f 93       	push	r25
     74a:	8f 93       	push	r24
     74c:	1f 92       	push	r1
     74e:	81 e0       	ldi	r24, 0x01	; 1
     750:	8f 93       	push	r24
     752:	51 d4       	rcall	.+2210   	; 0xff6 <lcdWriteText>
					if(button_A){
     754:	0f b6       	in	r0, 0x3f	; 63
     756:	f8 94       	cli
     758:	de bf       	out	0x3e, r29	; 62
     75a:	0f be       	out	0x3f, r0	; 63
     75c:	cd bf       	out	0x3d, r28	; 61
     75e:	14 14       	cp	r1, r4
     760:	15 04       	cpc	r1, r5
     762:	0c f4       	brge	.+2      	; 0x766 <__LOCK_REGION_LENGTH__+0x366>
     764:	18 c1       	rjmp	.+560    	; 0x996 <__LOCK_REGION_LENGTH__+0x596>
     766:	54 c1       	rjmp	.+680    	; 0xa10 <__LOCK_REGION_LENGTH__+0x610>
						stop_watch_mini_modes = 1;
					}
				break;
				case 1://counting start button A was pressed
						lcdWriteText(1,0,"%02u:%02u:%02u",stopwatch_minutes,stopwatch_seconds,stopwatch_hundredths);
     768:	1f 92       	push	r1
     76a:	27 96       	adiw	r28, 0x07	; 7
     76c:	9f ad       	ldd	r25, Y+63	; 0x3f
     76e:	27 97       	sbiw	r28, 0x07	; 7
     770:	9f 93       	push	r25
     772:	1f 92       	push	r1
     774:	29 96       	adiw	r28, 0x09	; 9
     776:	ef ad       	ldd	r30, Y+63	; 0x3f
     778:	29 97       	sbiw	r28, 0x09	; 9
     77a:	ef 93       	push	r30
     77c:	1f 92       	push	r1
     77e:	2f 96       	adiw	r28, 0x0f	; 15
     780:	ff ad       	ldd	r31, Y+63	; 0x3f
     782:	2f 97       	sbiw	r28, 0x0f	; 15
     784:	ff 93       	push	r31
     786:	87 e5       	ldi	r24, 0x57	; 87
     788:	92 e0       	ldi	r25, 0x02	; 2
     78a:	9f 93       	push	r25
     78c:	8f 93       	push	r24
     78e:	1f 92       	push	r1
						if((getSystemTimeMs()-clock) >=10){
     790:	81 e0       	ldi	r24, 0x01	; 1
     792:	8f 93       	push	r24
     794:	30 d4       	rcall	.+2144   	; 0xff6 <lcdWriteText>
     796:	38 d3       	rcall	.+1648   	; 0xe08 <getSystemTimeMs>
     798:	ad a8       	ldd	r10, Y+53	; 0x35
     79a:	be a8       	ldd	r11, Y+54	; 0x36
     79c:	cf a8       	ldd	r12, Y+55	; 0x37
     79e:	d8 ac       	ldd	r13, Y+56	; 0x38
     7a0:	e9 ac       	ldd	r14, Y+57	; 0x39
     7a2:	fa ac       	ldd	r15, Y+58	; 0x3a
     7a4:	0b ad       	ldd	r16, Y+59	; 0x3b
     7a6:	1c ad       	ldd	r17, Y+60	; 0x3c
     7a8:	85 d6       	rcall	.+3338   	; 0x14b4 <__subdi3>
     7aa:	0f b6       	in	r0, 0x3f	; 63
     7ac:	f8 94       	cli
     7ae:	de bf       	out	0x3e, r29	; 62
     7b0:	0f be       	out	0x3f, r0	; 63
     7b2:	cd bf       	out	0x3d, r28	; 61
     7b4:	a9 e0       	ldi	r26, 0x09	; 9
     7b6:	87 d6       	rcall	.+3342   	; 0x14c6 <__cmpdi2_s8>
     7b8:	89 f0       	breq	.+34     	; 0x7dc <__LOCK_REGION_LENGTH__+0x3dc>
							stopwatch_hundredths += 1;
     7ba:	80 f0       	brcs	.+32     	; 0x7dc <__LOCK_REGION_LENGTH__+0x3dc>
     7bc:	27 96       	adiw	r28, 0x07	; 7
     7be:	ff ad       	ldd	r31, Y+63	; 0x3f
     7c0:	27 97       	sbiw	r28, 0x07	; 7
     7c2:	ff 5f       	subi	r31, 0xFF	; 255
     7c4:	27 96       	adiw	r28, 0x07	; 7
     7c6:	ff af       	std	Y+63, r31	; 0x3f
							clock = getSystemTimeMs();
     7c8:	27 97       	sbiw	r28, 0x07	; 7
     7ca:	1e d3       	rcall	.+1596   	; 0xe08 <getSystemTimeMs>
     7cc:	2d ab       	std	Y+53, r18	; 0x35
     7ce:	3e ab       	std	Y+54, r19	; 0x36
     7d0:	4f ab       	std	Y+55, r20	; 0x37
     7d2:	58 af       	std	Y+56, r21	; 0x38
     7d4:	69 af       	std	Y+57, r22	; 0x39
     7d6:	7a af       	std	Y+58, r23	; 0x3a
     7d8:	8b af       	std	Y+59, r24	; 0x3b
     7da:	9c af       	std	Y+60, r25	; 0x3c
						}
						if(stopwatch_hundredths>99){
     7dc:	27 96       	adiw	r28, 0x07	; 7
     7de:	2f ad       	ldd	r18, Y+63	; 0x3f
     7e0:	27 97       	sbiw	r28, 0x07	; 7
     7e2:	24 36       	cpi	r18, 0x64	; 100
     7e4:	50 f0       	brcs	.+20     	; 0x7fa <__LOCK_REGION_LENGTH__+0x3fa>
							stopwatch_hundredths = 0;
							stopwatch_seconds += 1;
     7e6:	29 96       	adiw	r28, 0x09	; 9
     7e8:	3f ad       	ldd	r19, Y+63	; 0x3f
     7ea:	29 97       	sbiw	r28, 0x09	; 9
     7ec:	3f 5f       	subi	r19, 0xFF	; 255
     7ee:	29 96       	adiw	r28, 0x09	; 9
     7f0:	3f af       	std	Y+63, r19	; 0x3f
     7f2:	29 97       	sbiw	r28, 0x09	; 9
						if((getSystemTimeMs()-clock) >=10){
							stopwatch_hundredths += 1;
							clock = getSystemTimeMs();
						}
						if(stopwatch_hundredths>99){
							stopwatch_hundredths = 0;
     7f4:	27 96       	adiw	r28, 0x07	; 7
     7f6:	1f ae       	std	Y+63, r1	; 0x3f
     7f8:	27 97       	sbiw	r28, 0x07	; 7
							stopwatch_seconds += 1;
						}
						if(stopwatch_seconds>59){
     7fa:	29 96       	adiw	r28, 0x09	; 9
     7fc:	5f ad       	ldd	r21, Y+63	; 0x3f
     7fe:	29 97       	sbiw	r28, 0x09	; 9
     800:	5c 33       	cpi	r21, 0x3C	; 60
     802:	50 f0       	brcs	.+20     	; 0x818 <__LOCK_REGION_LENGTH__+0x418>
							stopwatch_seconds = 0;
							stopwatch_minutes += 1;
     804:	2f 96       	adiw	r28, 0x0f	; 15
     806:	6f ad       	ldd	r22, Y+63	; 0x3f
     808:	2f 97       	sbiw	r28, 0x0f	; 15
     80a:	6f 5f       	subi	r22, 0xFF	; 255
     80c:	2f 96       	adiw	r28, 0x0f	; 15
     80e:	6f af       	std	Y+63, r22	; 0x3f
     810:	2f 97       	sbiw	r28, 0x0f	; 15
						if(stopwatch_hundredths>99){
							stopwatch_hundredths = 0;
							stopwatch_seconds += 1;
						}
						if(stopwatch_seconds>59){
							stopwatch_seconds = 0;
     812:	29 96       	adiw	r28, 0x09	; 9
     814:	1f ae       	std	Y+63, r1	; 0x3f
     816:	29 97       	sbiw	r28, 0x09	; 9
							stopwatch_minutes += 1;
						}
						if(button_A){
     818:	14 14       	cp	r1, r4
     81a:	15 04       	cpc	r1, r5
     81c:	24 f4       	brge	.+8      	; 0x826 <__LOCK_REGION_LENGTH__+0x426>
							stop_watch_mini_modes = 2;
     81e:	82 e0       	ldi	r24, 0x02	; 2
     820:	25 96       	adiw	r28, 0x05	; 5
     822:	8f af       	std	Y+63, r24	; 0x3f
     824:	25 97       	sbiw	r28, 0x05	; 5
						}
						if((stopwatch_hundredths == 99) && (stopwatch_seconds == 59) && (stopwatch_minutes == 59)){
     826:	27 96       	adiw	r28, 0x07	; 7
     828:	9f ad       	ldd	r25, Y+63	; 0x3f
     82a:	27 97       	sbiw	r28, 0x07	; 7
     82c:	93 36       	cpi	r25, 0x63	; 99
     82e:	71 f4       	brne	.+28     	; 0x84c <__LOCK_REGION_LENGTH__+0x44c>
     830:	29 96       	adiw	r28, 0x09	; 9
     832:	ef ad       	ldd	r30, Y+63	; 0x3f
     834:	29 97       	sbiw	r28, 0x09	; 9
     836:	eb 33       	cpi	r30, 0x3B	; 59
     838:	49 f4       	brne	.+18     	; 0x84c <__LOCK_REGION_LENGTH__+0x44c>
     83a:	2f 96       	adiw	r28, 0x0f	; 15
     83c:	ff ad       	ldd	r31, Y+63	; 0x3f
     83e:	2f 97       	sbiw	r28, 0x0f	; 15
     840:	fb 33       	cpi	r31, 0x3B	; 59
     842:	21 f4       	brne	.+8      	; 0x84c <__LOCK_REGION_LENGTH__+0x44c>
							stop_watch_mini_modes = 3;
     844:	23 e0       	ldi	r18, 0x03	; 3
     846:	25 96       	adiw	r28, 0x05	; 5
     848:	2f af       	std	Y+63, r18	; 0x3f
						}
						if(button_L){
     84a:	25 97       	sbiw	r28, 0x05	; 5
     84c:	16 14       	cp	r1, r6
     84e:	17 04       	cpc	r1, r7
     850:	0c f4       	brge	.+2      	; 0x854 <__LOCK_REGION_LENGTH__+0x454>
     852:	a6 c0       	rjmp	.+332    	; 0x9a0 <__LOCK_REGION_LENGTH__+0x5a0>
							clock_light = 1;
						}
				break;
				
				case 2: //counting stop
					if(button_A){
     854:	dd c0       	rjmp	.+442    	; 0xa10 <__LOCK_REGION_LENGTH__+0x610>
     856:	14 14       	cp	r1, r4
						stop_watch_mini_modes = 1;
     858:	15 04       	cpc	r1, r5
     85a:	24 f4       	brge	.+8      	; 0x864 <__LOCK_REGION_LENGTH__+0x464>
     85c:	31 e0       	ldi	r19, 0x01	; 1
					}
					if(button_L){
     85e:	25 96       	adiw	r28, 0x05	; 5
     860:	3f af       	std	Y+63, r19	; 0x3f
     862:	25 97       	sbiw	r28, 0x05	; 5
     864:	16 14       	cp	r1, r6
     866:	17 04       	cpc	r1, r7
						clock_light = 1;
					}
				break;
				
				case 3: //max amount of timer over
					if(button_L){
     868:	0c f4       	brge	.+2      	; 0x86c <__LOCK_REGION_LENGTH__+0x46c>
     86a:	a1 c0       	rjmp	.+322    	; 0x9ae <__LOCK_REGION_LENGTH__+0x5ae>
     86c:	d1 c0       	rjmp	.+418    	; 0xa10 <__LOCK_REGION_LENGTH__+0x610>
     86e:	16 14       	cp	r1, r6
						clock_light = 1;
					}					
				break;
				
				case 4: //stop time but still counting
						if((getSystemTimeMs()-clock) >=10){
     870:	17 04       	cpc	r1, r7
     872:	0c f4       	brge	.+2      	; 0x876 <__LOCK_REGION_LENGTH__+0x476>
     874:	ab c0       	rjmp	.+342    	; 0x9cc <__LOCK_REGION_LENGTH__+0x5cc>
     876:	cc c0       	rjmp	.+408    	; 0xa10 <__LOCK_REGION_LENGTH__+0x610>
     878:	c7 d2       	rcall	.+1422   	; 0xe08 <getSystemTimeMs>
     87a:	ad a8       	ldd	r10, Y+53	; 0x35
     87c:	be a8       	ldd	r11, Y+54	; 0x36
     87e:	cf a8       	ldd	r12, Y+55	; 0x37
     880:	d8 ac       	ldd	r13, Y+56	; 0x38
     882:	e9 ac       	ldd	r14, Y+57	; 0x39
     884:	fa ac       	ldd	r15, Y+58	; 0x3a
     886:	0b ad       	ldd	r16, Y+59	; 0x3b
     888:	1c ad       	ldd	r17, Y+60	; 0x3c
     88a:	14 d6       	rcall	.+3112   	; 0x14b4 <__subdi3>
     88c:	a9 e0       	ldi	r26, 0x09	; 9
     88e:	1b d6       	rcall	.+3126   	; 0x14c6 <__cmpdi2_s8>
     890:	89 f0       	breq	.+34     	; 0x8b4 <__LOCK_REGION_LENGTH__+0x4b4>
							stopwatch_hundredths += 1;
     892:	80 f0       	brcs	.+32     	; 0x8b4 <__LOCK_REGION_LENGTH__+0x4b4>
     894:	27 96       	adiw	r28, 0x07	; 7
     896:	5f ad       	ldd	r21, Y+63	; 0x3f
     898:	27 97       	sbiw	r28, 0x07	; 7
     89a:	5f 5f       	subi	r21, 0xFF	; 255
     89c:	27 96       	adiw	r28, 0x07	; 7
     89e:	5f af       	std	Y+63, r21	; 0x3f
							clock = getSystemTimeMs();
     8a0:	27 97       	sbiw	r28, 0x07	; 7
     8a2:	b2 d2       	rcall	.+1380   	; 0xe08 <getSystemTimeMs>
     8a4:	2d ab       	std	Y+53, r18	; 0x35
     8a6:	3e ab       	std	Y+54, r19	; 0x36
     8a8:	4f ab       	std	Y+55, r20	; 0x37
     8aa:	58 af       	std	Y+56, r21	; 0x38
     8ac:	69 af       	std	Y+57, r22	; 0x39
     8ae:	7a af       	std	Y+58, r23	; 0x3a
     8b0:	8b af       	std	Y+59, r24	; 0x3b
     8b2:	9c af       	std	Y+60, r25	; 0x3c
						}
						if(stopwatch_hundredths>99){
     8b4:	27 96       	adiw	r28, 0x07	; 7
     8b6:	6f ad       	ldd	r22, Y+63	; 0x3f
     8b8:	27 97       	sbiw	r28, 0x07	; 7
     8ba:	64 36       	cpi	r22, 0x64	; 100
     8bc:	50 f0       	brcs	.+20     	; 0x8d2 <__LOCK_REGION_LENGTH__+0x4d2>
							stopwatch_hundredths = 0;
							stopwatch_seconds += 1;
     8be:	29 96       	adiw	r28, 0x09	; 9
     8c0:	8f ad       	ldd	r24, Y+63	; 0x3f
     8c2:	29 97       	sbiw	r28, 0x09	; 9
     8c4:	8f 5f       	subi	r24, 0xFF	; 255
     8c6:	29 96       	adiw	r28, 0x09	; 9
     8c8:	8f af       	std	Y+63, r24	; 0x3f
     8ca:	29 97       	sbiw	r28, 0x09	; 9
						if((getSystemTimeMs()-clock) >=10){
							stopwatch_hundredths += 1;
							clock = getSystemTimeMs();
						}
						if(stopwatch_hundredths>99){
							stopwatch_hundredths = 0;
     8cc:	27 96       	adiw	r28, 0x07	; 7
     8ce:	1f ae       	std	Y+63, r1	; 0x3f
     8d0:	27 97       	sbiw	r28, 0x07	; 7
							stopwatch_seconds += 1;
						}
						if(stopwatch_seconds>59){
     8d2:	29 96       	adiw	r28, 0x09	; 9
     8d4:	9f ad       	ldd	r25, Y+63	; 0x3f
     8d6:	29 97       	sbiw	r28, 0x09	; 9
     8d8:	9c 33       	cpi	r25, 0x3C	; 60
     8da:	50 f0       	brcs	.+20     	; 0x8f0 <__LOCK_REGION_LENGTH__+0x4f0>
							stopwatch_seconds = 0;
							stopwatch_minutes += 1;
     8dc:	2f 96       	adiw	r28, 0x0f	; 15
     8de:	ef ad       	ldd	r30, Y+63	; 0x3f
     8e0:	2f 97       	sbiw	r28, 0x0f	; 15
     8e2:	ef 5f       	subi	r30, 0xFF	; 255
     8e4:	2f 96       	adiw	r28, 0x0f	; 15
     8e6:	ef af       	std	Y+63, r30	; 0x3f
     8e8:	2f 97       	sbiw	r28, 0x0f	; 15
						if(stopwatch_hundredths>99){
							stopwatch_hundredths = 0;
							stopwatch_seconds += 1;
						}
						if(stopwatch_seconds>59){
							stopwatch_seconds = 0;
     8ea:	29 96       	adiw	r28, 0x09	; 9
     8ec:	1f ae       	std	Y+63, r1	; 0x3f
     8ee:	29 97       	sbiw	r28, 0x09	; 9
							stopwatch_minutes += 1;
						}
						if(button_A){
     8f0:	14 14       	cp	r1, r4
     8f2:	15 04       	cpc	r1, r5
     8f4:	24 f4       	brge	.+8      	; 0x8fe <__LOCK_REGION_LENGTH__+0x4fe>
							stop_watch_mini_modes = 2;
     8f6:	f2 e0       	ldi	r31, 0x02	; 2
     8f8:	25 96       	adiw	r28, 0x05	; 5
     8fa:	ff af       	std	Y+63, r31	; 0x3f
     8fc:	25 97       	sbiw	r28, 0x05	; 5
						}
						if((stopwatch_hundredths == 99) && (stopwatch_seconds == 59) && (stopwatch_minutes == 59)){
     8fe:	27 96       	adiw	r28, 0x07	; 7
     900:	2f ad       	ldd	r18, Y+63	; 0x3f
     902:	27 97       	sbiw	r28, 0x07	; 7
     904:	23 36       	cpi	r18, 0x63	; 99
     906:	71 f4       	brne	.+28     	; 0x924 <__LOCK_REGION_LENGTH__+0x524>
     908:	29 96       	adiw	r28, 0x09	; 9
     90a:	3f ad       	ldd	r19, Y+63	; 0x3f
     90c:	29 97       	sbiw	r28, 0x09	; 9
     90e:	3b 33       	cpi	r19, 0x3B	; 59
     910:	49 f4       	brne	.+18     	; 0x924 <__LOCK_REGION_LENGTH__+0x524>
     912:	2f 96       	adiw	r28, 0x0f	; 15
     914:	5f ad       	ldd	r21, Y+63	; 0x3f
     916:	2f 97       	sbiw	r28, 0x0f	; 15
     918:	5b 33       	cpi	r21, 0x3B	; 59
     91a:	21 f4       	brne	.+8      	; 0x924 <__LOCK_REGION_LENGTH__+0x524>
							stop_watch_mini_modes = 3;
     91c:	63 e0       	ldi	r22, 0x03	; 3
     91e:	25 96       	adiw	r28, 0x05	; 5
     920:	6f af       	std	Y+63, r22	; 0x3f
     922:	25 97       	sbiw	r28, 0x05	; 5
						}
						if(button_L){
     924:	16 14       	cp	r1, r6
     926:	17 04       	cpc	r1, r7
     928:	34 f4       	brge	.+12     	; 0x936 <__LOCK_REGION_LENGTH__+0x536>
							stop_watch_mini_modes = 1;
     92a:	81 e0       	ldi	r24, 0x01	; 1
     92c:	25 96       	adiw	r28, 0x05	; 5
     92e:	8f af       	std	Y+63, r24	; 0x3f
     930:	25 97       	sbiw	r28, 0x05	; 5
							clock_light = 1;
     932:	22 24       	eor	r2, r2
     934:	23 94       	inc	r2
						}
						if(button_A){
     936:	14 14       	cp	r1, r4
     938:	15 04       	cpc	r1, r5
     93a:	0c f4       	brge	.+2      	; 0x93e <__LOCK_REGION_LENGTH__+0x53e>
     93c:	56 c0       	rjmp	.+172    	; 0x9ea <__LOCK_REGION_LENGTH__+0x5ea>
							
						}
				break;
				
				case 5: //
					if(button_L){
     93e:	68 c0       	rjmp	.+208    	; 0xa10 <__LOCK_REGION_LENGTH__+0x610>
     940:	16 14       	cp	r1, r6
     942:	17 04       	cpc	r1, r7
     944:	0c f0       	brlt	.+2      	; 0x948 <__LOCK_REGION_LENGTH__+0x548>
						lcdWriteText(1,0,"%02u:%02u:%02u",stopwatch_minutes,stopwatch_seconds,stopwatch_hundredths);
     946:	64 c0       	rjmp	.+200    	; 0xa10 <__LOCK_REGION_LENGTH__+0x610>
     948:	1f 92       	push	r1
     94a:	27 96       	adiw	r28, 0x07	; 7
     94c:	9f ad       	ldd	r25, Y+63	; 0x3f
     94e:	27 97       	sbiw	r28, 0x07	; 7
     950:	9f 93       	push	r25
     952:	1f 92       	push	r1
     954:	29 96       	adiw	r28, 0x09	; 9
     956:	ef ad       	ldd	r30, Y+63	; 0x3f
     958:	29 97       	sbiw	r28, 0x09	; 9
     95a:	ef 93       	push	r30
     95c:	1f 92       	push	r1
     95e:	2f 96       	adiw	r28, 0x0f	; 15
     960:	ff ad       	ldd	r31, Y+63	; 0x3f
     962:	2f 97       	sbiw	r28, 0x0f	; 15
     964:	ff 93       	push	r31
     966:	87 e5       	ldi	r24, 0x57	; 87
     968:	92 e0       	ldi	r25, 0x02	; 2
     96a:	9f 93       	push	r25
     96c:	8f 93       	push	r24
     96e:	1f 92       	push	r1
     970:	81 e0       	ldi	r24, 0x01	; 1
     972:	8f 93       	push	r24
     974:	40 d3       	rcall	.+1664   	; 0xff6 <lcdWriteText>
     976:	0f b6       	in	r0, 0x3f	; 63
     978:	f8 94       	cli
     97a:	de bf       	out	0x3e, r29	; 62
     97c:	0f be       	out	0x3f, r0	; 63
     97e:	cd bf       	out	0x3d, r28	; 61
						clock_light = 1;
						stop_watch_mini_modes = 6;
     980:	36 e0       	ldi	r19, 0x06	; 6
     982:	25 96       	adiw	r28, 0x05	; 5
     984:	3f af       	std	Y+63, r19	; 0x3f
     986:	25 97       	sbiw	r28, 0x05	; 5
				break;
				
				case 5: //
					if(button_L){
						lcdWriteText(1,0,"%02u:%02u:%02u",stopwatch_minutes,stopwatch_seconds,stopwatch_hundredths);
						clock_light = 1;
     988:	22 24       	eor	r2, r2
     98a:	23 94       	inc	r2
     98c:	41 c0       	rjmp	.+130    	; 0xa10 <__LOCK_REGION_LENGTH__+0x610>
						stop_watch_mini_modes = 6;
					}
				break;
				
				case 6:
					if(button_L){
     98e:	16 14       	cp	r1, r6
     990:	17 04       	cpc	r1, r7
     992:	84 f1       	brlt	.+96     	; 0x9f4 <__LOCK_REGION_LENGTH__+0x5f4>
     994:	3d c0       	rjmp	.+122    	; 0xa10 <__LOCK_REGION_LENGTH__+0x610>
		case 2://Stopwatch
			switch(stop_watch_mini_modes){
				case 0: //normal mode no counting
					lcdWriteText(1,0,"%02u:%02u:%02u",stopwatch_minutes,stopwatch_seconds,stopwatch_hundredths);
					if(button_A){
						stop_watch_mini_modes = 1;
     996:	51 e0       	ldi	r21, 0x01	; 1
     998:	25 96       	adiw	r28, 0x05	; 5
     99a:	5f af       	std	Y+63, r21	; 0x3f
     99c:	25 97       	sbiw	r28, 0x05	; 5
     99e:	38 c0       	rjmp	.+112    	; 0xa10 <__LOCK_REGION_LENGTH__+0x610>
						}
						if((stopwatch_hundredths == 99) && (stopwatch_seconds == 59) && (stopwatch_minutes == 59)){
							stop_watch_mini_modes = 3;
						}
						if(button_L){
							stop_watch_mini_modes = 4;
     9a0:	64 e0       	ldi	r22, 0x04	; 4
     9a2:	25 96       	adiw	r28, 0x05	; 5
     9a4:	6f af       	std	Y+63, r22	; 0x3f
     9a6:	25 97       	sbiw	r28, 0x05	; 5
							clock_light = 1;
     9a8:	22 24       	eor	r2, r2
     9aa:	23 94       	inc	r2
     9ac:	31 c0       	rjmp	.+98     	; 0xa10 <__LOCK_REGION_LENGTH__+0x610>
				case 2: //counting stop
					if(button_A){
						stop_watch_mini_modes = 1;
					}
					if(button_L){
						stop_watch_mini_modes = 0;
     9ae:	25 96       	adiw	r28, 0x05	; 5
     9b0:	1f ae       	std	Y+63, r1	; 0x3f
     9b2:	25 97       	sbiw	r28, 0x05	; 5
						stopwatch_seconds = 0;
						stopwatch_minutes = 0;
     9b4:	2f 96       	adiw	r28, 0x0f	; 15
     9b6:	1f ae       	std	Y+63, r1	; 0x3f
     9b8:	2f 97       	sbiw	r28, 0x0f	; 15
					if(button_A){
						stop_watch_mini_modes = 1;
					}
					if(button_L){
						stop_watch_mini_modes = 0;
						stopwatch_seconds = 0;
     9ba:	29 96       	adiw	r28, 0x09	; 9
     9bc:	1f ae       	std	Y+63, r1	; 0x3f
     9be:	29 97       	sbiw	r28, 0x09	; 9
						stopwatch_minutes = 0;
						stopwatch_hundredths = 0;
     9c0:	27 96       	adiw	r28, 0x07	; 7
     9c2:	1f ae       	std	Y+63, r1	; 0x3f
     9c4:	27 97       	sbiw	r28, 0x07	; 7
						clock_light = 1;
     9c6:	22 24       	eor	r2, r2
     9c8:	23 94       	inc	r2
     9ca:	22 c0       	rjmp	.+68     	; 0xa10 <__LOCK_REGION_LENGTH__+0x610>
					}
				break;
				
				case 3: //max amount of timer over
					if(button_L){
						stop_watch_mini_modes = 0;
     9cc:	25 96       	adiw	r28, 0x05	; 5
     9ce:	1f ae       	std	Y+63, r1	; 0x3f
     9d0:	25 97       	sbiw	r28, 0x05	; 5
						stopwatch_seconds = 0;
						stopwatch_minutes = 0;
     9d2:	2f 96       	adiw	r28, 0x0f	; 15
     9d4:	1f ae       	std	Y+63, r1	; 0x3f
     9d6:	2f 97       	sbiw	r28, 0x0f	; 15
				break;
				
				case 3: //max amount of timer over
					if(button_L){
						stop_watch_mini_modes = 0;
						stopwatch_seconds = 0;
     9d8:	29 96       	adiw	r28, 0x09	; 9
     9da:	1f ae       	std	Y+63, r1	; 0x3f
     9dc:	29 97       	sbiw	r28, 0x09	; 9
						stopwatch_minutes = 0;
						stopwatch_hundredths = 0;
     9de:	27 96       	adiw	r28, 0x07	; 7
     9e0:	1f ae       	std	Y+63, r1	; 0x3f
     9e2:	27 97       	sbiw	r28, 0x07	; 7
						clock_light = 1;
     9e4:	22 24       	eor	r2, r2
     9e6:	23 94       	inc	r2
     9e8:	13 c0       	rjmp	.+38     	; 0xa10 <__LOCK_REGION_LENGTH__+0x610>
						if(button_L){
							stop_watch_mini_modes = 1;
							clock_light = 1;
						}
						if(button_A){
							stop_watch_mini_modes = 5;
     9ea:	85 e0       	ldi	r24, 0x05	; 5
     9ec:	25 96       	adiw	r28, 0x05	; 5
     9ee:	8f af       	std	Y+63, r24	; 0x3f
     9f0:	25 97       	sbiw	r28, 0x05	; 5
     9f2:	0e c0       	rjmp	.+28     	; 0xa10 <__LOCK_REGION_LENGTH__+0x610>
				break;
				
				case 6:
					if(button_L){
						clock_light = 1;
						stop_watch_mini_modes = 0;
     9f4:	25 96       	adiw	r28, 0x05	; 5
     9f6:	1f ae       	std	Y+63, r1	; 0x3f
						stopwatch_seconds = 0;
						stopwatch_minutes = 0;
     9f8:	25 97       	sbiw	r28, 0x05	; 5
     9fa:	2f 96       	adiw	r28, 0x0f	; 15
     9fc:	1f ae       	std	Y+63, r1	; 0x3f
				
				case 6:
					if(button_L){
						clock_light = 1;
						stop_watch_mini_modes = 0;
						stopwatch_seconds = 0;
     9fe:	2f 97       	sbiw	r28, 0x0f	; 15
     a00:	29 96       	adiw	r28, 0x09	; 9
     a02:	1f ae       	std	Y+63, r1	; 0x3f
						stopwatch_minutes = 0;
						stopwatch_hundredths = 0;
     a04:	29 97       	sbiw	r28, 0x09	; 9
     a06:	27 96       	adiw	r28, 0x07	; 7
     a08:	1f ae       	std	Y+63, r1	; 0x3f
					}
				break;
				
				case 6:
					if(button_L){
						clock_light = 1;
     a0a:	27 97       	sbiw	r28, 0x07	; 7
     a0c:	22 24       	eor	r2, r2
						stopwatch_minutes = 0;
						stopwatch_hundredths = 0;
					}
				break;
			}
			if(button_c){
     a0e:	23 94       	inc	r2
     a10:	ea a9       	ldd	r30, Y+50	; 0x32
     a12:	fb a9       	ldd	r31, Y+51	; 0x33
     a14:	1e 16       	cp	r1, r30
     a16:	1f 06       	cpc	r1, r31
     a18:	0c f0       	brlt	.+2      	; 0xa1c <__LOCK_REGION_LENGTH__+0x61c>
				clock_modes += 1;
     a1a:	de c1       	rjmp	.+956    	; 0xdd8 <__LOCK_REGION_LENGTH__+0x9d8>
     a1c:	83 94       	inc	r8
			}
		break;
		
		case 3://Zeitänderungen
			daytime = 5;
			lcdWriteText(0,0,"%s",AM_PM[daytime]);
     a1e:	dc c1       	rjmp	.+952    	; 0xdd8 <__LOCK_REGION_LENGTH__+0x9d8>
     a20:	86 e6       	ldi	r24, 0x66	; 102
     a22:	92 e0       	ldi	r25, 0x02	; 2
     a24:	9f 93       	push	r25
     a26:	8f 93       	push	r24
     a28:	85 e3       	ldi	r24, 0x35	; 53
     a2a:	92 e0       	ldi	r25, 0x02	; 2
     a2c:	9f 93       	push	r25
     a2e:	8f 93       	push	r24
     a30:	1f 92       	push	r1
     a32:	1f 92       	push	r1
     a34:	e0 d2       	rcall	.+1472   	; 0xff6 <lcdWriteText>
			if(!entry_flag){
     a36:	0f 90       	pop	r0
     a38:	0f 90       	pop	r0
     a3a:	0f 90       	pop	r0
     a3c:	0f 90       	pop	r0
     a3e:	0f 90       	pop	r0
     a40:	0f 90       	pop	r0
     a42:	26 96       	adiw	r28, 0x06	; 6
     a44:	ff ad       	ldd	r31, Y+63	; 0x3f
     a46:	26 97       	sbiw	r28, 0x06	; 6
     a48:	f1 11       	cpse	r31, r1
				entry_flag = 1;
				lcdWriteText(0,3,"%s",week_days[day_of_the_week]);
     a4a:	3c c0       	rjmp	.+120    	; 0xac4 <__LOCK_REGION_LENGTH__+0x6c4>
     a4c:	21 96       	adiw	r28, 0x01	; 1
     a4e:	2f ad       	ldd	r18, Y+63	; 0x3f
     a50:	21 97       	sbiw	r28, 0x01	; 1
     a52:	e2 2f       	mov	r30, r18
     a54:	f0 e0       	ldi	r31, 0x00	; 0
     a56:	ee 0f       	add	r30, r30
     a58:	ff 1f       	adc	r31, r31
     a5a:	81 e0       	ldi	r24, 0x01	; 1
     a5c:	90 e0       	ldi	r25, 0x00	; 0
     a5e:	8c 0f       	add	r24, r28
     a60:	9d 1f       	adc	r25, r29
     a62:	e8 0f       	add	r30, r24
     a64:	f9 1f       	adc	r31, r25
     a66:	85 85       	ldd	r24, Z+13	; 0x0d
     a68:	8f 93       	push	r24
     a6a:	84 85       	ldd	r24, Z+12	; 0x0c
     a6c:	8f 93       	push	r24
     a6e:	85 e3       	ldi	r24, 0x35	; 53
     a70:	92 e0       	ldi	r25, 0x02	; 2
     a72:	9f 93       	push	r25
     a74:	8f 93       	push	r24
     a76:	83 e0       	ldi	r24, 0x03	; 3
     a78:	8f 93       	push	r24
     a7a:	1f 92       	push	r1
     a7c:	bc d2       	rcall	.+1400   	; 0xff6 <lcdWriteText>
     a7e:	0f 90       	pop	r0
     a80:	0f 90       	pop	r0
     a82:	0f 90       	pop	r0
     a84:	0f 90       	pop	r0
     a86:	0f 90       	pop	r0
     a88:	0f 90       	pop	r0
				zwischenspeicher_sekunden = seconds;
				zwischenspeicher_minuten = minutes;
				zwischenspeicher_stunden = hour_24h;
				zwischenspeicher_datum = date_day;
				zwischenspeicher_wochentag = day_of_the_week;
     a8a:	21 96       	adiw	r28, 0x01	; 1
     a8c:	9f ad       	ldd	r25, Y+63	; 0x3f
     a8e:	21 97       	sbiw	r28, 0x01	; 1
     a90:	2e 96       	adiw	r28, 0x0e	; 14
     a92:	9f af       	std	Y+63, r25	; 0x3f
     a94:	2e 97       	sbiw	r28, 0x0e	; 14
				entry_flag = 1;
				lcdWriteText(0,3,"%s",week_days[day_of_the_week]);
				zwischenspeicher_sekunden = seconds;
				zwischenspeicher_minuten = minutes;
				zwischenspeicher_stunden = hour_24h;
				zwischenspeicher_datum = date_day;
     a96:	ef a5       	ldd	r30, Y+47	; 0x2f
     a98:	2d 96       	adiw	r28, 0x0d	; 13
     a9a:	ef af       	std	Y+63, r30	; 0x3f
     a9c:	2d 97       	sbiw	r28, 0x0d	; 13
				zwischenspeicher_wochentag = day_of_the_week;
				zwischenspeicher_monate = month;
     a9e:	fb a5       	ldd	r31, Y+43	; 0x2b
     aa0:	2c 96       	adiw	r28, 0x0c	; 12
     aa2:	ff af       	std	Y+63, r31	; 0x3f
     aa4:	2c 97       	sbiw	r28, 0x0c	; 12
			if(!entry_flag){
				entry_flag = 1;
				lcdWriteText(0,3,"%s",week_days[day_of_the_week]);
				zwischenspeicher_sekunden = seconds;
				zwischenspeicher_minuten = minutes;
				zwischenspeicher_stunden = hour_24h;
     aa6:	28 96       	adiw	r28, 0x08	; 8
     aa8:	9f ae       	std	Y+63, r9	; 0x3f
     aaa:	28 97       	sbiw	r28, 0x08	; 8
			lcdWriteText(0,0,"%s",AM_PM[daytime]);
			if(!entry_flag){
				entry_flag = 1;
				lcdWriteText(0,3,"%s",week_days[day_of_the_week]);
				zwischenspeicher_sekunden = seconds;
				zwischenspeicher_minuten = minutes;
     aac:	2c a5       	ldd	r18, Y+44	; 0x2c
     aae:	2b 96       	adiw	r28, 0x0b	; 11
     ab0:	2f af       	std	Y+63, r18	; 0x3f
     ab2:	2b 97       	sbiw	r28, 0x0b	; 11
			daytime = 5;
			lcdWriteText(0,0,"%s",AM_PM[daytime]);
			if(!entry_flag){
				entry_flag = 1;
				lcdWriteText(0,3,"%s",week_days[day_of_the_week]);
				zwischenspeicher_sekunden = seconds;
     ab4:	38 a9       	ldd	r19, Y+48	; 0x30
     ab6:	2a 96       	adiw	r28, 0x0a	; 10
     ab8:	3f af       	std	Y+63, r19	; 0x3f
		
		case 3://Zeitänderungen
			daytime = 5;
			lcdWriteText(0,0,"%s",AM_PM[daytime]);
			if(!entry_flag){
				entry_flag = 1;
     aba:	2a 97       	sbiw	r28, 0x0a	; 10
     abc:	51 e0       	ldi	r21, 0x01	; 1
     abe:	26 96       	adiw	r28, 0x06	; 6
     ac0:	5f af       	std	Y+63, r21	; 0x3f
				zwischenspeicher_stunden = hour_24h;
				zwischenspeicher_datum = date_day;
				zwischenspeicher_wochentag = day_of_the_week;
				zwischenspeicher_monate = month;
			}
			if(kalender_modes<3){
     ac2:	26 97       	sbiw	r28, 0x06	; 6
     ac4:	6f ad       	ldd	r22, Y+63	; 0x3f
     ac6:	63 30       	cpi	r22, 0x03	; 3
				lcdWriteText(1,0,"%02u:%02u:%02u",zwischenspeicher_stunden,zwischenspeicher_minuten,zwischenspeicher_sekunden);
     ac8:	e0 f4       	brcc	.+56     	; 0xb02 <__LOCK_REGION_LENGTH__+0x702>
     aca:	1f 92       	push	r1
     acc:	2a 96       	adiw	r28, 0x0a	; 10
     ace:	8f ad       	ldd	r24, Y+63	; 0x3f
     ad0:	2a 97       	sbiw	r28, 0x0a	; 10
     ad2:	8f 93       	push	r24
     ad4:	1f 92       	push	r1
     ad6:	2b 96       	adiw	r28, 0x0b	; 11
     ad8:	9f ad       	ldd	r25, Y+63	; 0x3f
     ada:	2b 97       	sbiw	r28, 0x0b	; 11
     adc:	9f 93       	push	r25
     ade:	1f 92       	push	r1
     ae0:	28 96       	adiw	r28, 0x08	; 8
     ae2:	ef ad       	ldd	r30, Y+63	; 0x3f
     ae4:	28 97       	sbiw	r28, 0x08	; 8
     ae6:	ef 93       	push	r30
     ae8:	87 e5       	ldi	r24, 0x57	; 87
     aea:	92 e0       	ldi	r25, 0x02	; 2
     aec:	9f 93       	push	r25
     aee:	8f 93       	push	r24
     af0:	1f 92       	push	r1
     af2:	81 e0       	ldi	r24, 0x01	; 1
     af4:	8f 93       	push	r24
     af6:	7f d2       	rcall	.+1278   	; 0xff6 <lcdWriteText>
     af8:	0f b6       	in	r0, 0x3f	; 63
     afa:	f8 94       	cli
     afc:	de bf       	out	0x3e, r29	; 62
     afe:	0f be       	out	0x3f, r0	; 63
     b00:	cd bf       	out	0x3d, r28	; 61
			}
			switch(kalender_modes){
     b02:	3f ad       	ldd	r19, Y+63	; 0x3f
     b04:	32 30       	cpi	r19, 0x02	; 2
     b06:	09 f4       	brne	.+2      	; 0xb0a <__LOCK_REGION_LENGTH__+0x70a>
     b08:	4c c0       	rjmp	.+152    	; 0xba2 <__LOCK_REGION_LENGTH__+0x7a2>
     b0a:	28 f4       	brcc	.+10     	; 0xb16 <__LOCK_REGION_LENGTH__+0x716>
     b0c:	33 23       	and	r19, r19
     b0e:	69 f0       	breq	.+26     	; 0xb2a <__LOCK_REGION_LENGTH__+0x72a>
     b10:	31 30       	cpi	r19, 0x01	; 1
     b12:	61 f1       	breq	.+88     	; 0xb6c <__LOCK_REGION_LENGTH__+0x76c>
     b14:	27 c1       	rjmp	.+590    	; 0xd64 <__LOCK_REGION_LENGTH__+0x964>
     b16:	5f ad       	ldd	r21, Y+63	; 0x3f
     b18:	54 30       	cpi	r21, 0x04	; 4
     b1a:	09 f4       	brne	.+2      	; 0xb1e <__LOCK_REGION_LENGTH__+0x71e>
     b1c:	8e c0       	rjmp	.+284    	; 0xc3a <__LOCK_REGION_LENGTH__+0x83a>
     b1e:	08 f4       	brcc	.+2      	; 0xb22 <__LOCK_REGION_LENGTH__+0x722>
     b20:	5b c0       	rjmp	.+182    	; 0xbd8 <__LOCK_REGION_LENGTH__+0x7d8>
     b22:	55 30       	cpi	r21, 0x05	; 5
     b24:	09 f4       	brne	.+2      	; 0xb28 <__LOCK_REGION_LENGTH__+0x728>
     b26:	ba c0       	rjmp	.+372    	; 0xc9c <__LOCK_REGION_LENGTH__+0x89c>
     b28:	1d c1       	rjmp	.+570    	; 0xd64 <__LOCK_REGION_LENGTH__+0x964>
				case 0: //seconds
					if(button_c){
     b2a:	8a a9       	ldd	r24, Y+50	; 0x32
     b2c:	9b a9       	ldd	r25, Y+51	; 0x33
     b2e:	18 16       	cp	r1, r24
     b30:	19 06       	cpc	r1, r25
     b32:	0c f4       	brge	.+2      	; 0xb36 <__LOCK_REGION_LENGTH__+0x736>
						clock_modes = 0;
     b34:	81 2c       	mov	r8, r1
					}
					//nächster modus
					if(button_L){
     b36:	16 14       	cp	r1, r6
     b38:	17 04       	cpc	r1, r7
     b3a:	2c f4       	brge	.+10     	; 0xb46 <__LOCK_REGION_LENGTH__+0x746>
						kalender_modes += 1;
     b3c:	9f ad       	ldd	r25, Y+63	; 0x3f
     b3e:	9f 5f       	subi	r25, 0xFF	; 255
     b40:	9f af       	std	Y+63, r25	; 0x3f
						clock_light = 1;
     b42:	22 24       	eor	r2, r2
     b44:	23 94       	inc	r2
					}
					if(button_A){
     b46:	14 14       	cp	r1, r4
     b48:	15 04       	cpc	r1, r5
     b4a:	3c f4       	brge	.+14     	; 0xb5a <__LOCK_REGION_LENGTH__+0x75a>
						zwischenspeicher_sekunden += 1;
     b4c:	2a 96       	adiw	r28, 0x0a	; 10
     b4e:	ef ad       	ldd	r30, Y+63	; 0x3f
     b50:	2a 97       	sbiw	r28, 0x0a	; 10
     b52:	ef 5f       	subi	r30, 0xFF	; 255
     b54:	2a 96       	adiw	r28, 0x0a	; 10
     b56:	ef af       	std	Y+63, r30	; 0x3f
     b58:	2a 97       	sbiw	r28, 0x0a	; 10
					}
					if(zwischenspeicher_sekunden>59){
     b5a:	2a 96       	adiw	r28, 0x0a	; 10
     b5c:	ff ad       	ldd	r31, Y+63	; 0x3f
     b5e:	2a 97       	sbiw	r28, 0x0a	; 10
     b60:	fc 33       	cpi	r31, 0x3C	; 60
     b62:	08 f0       	brcs	.+2      	; 0xb66 <__LOCK_REGION_LENGTH__+0x766>
     b64:	02 c1       	rjmp	.+516    	; 0xd6a <__LOCK_REGION_LENGTH__+0x96a>
				clock_modes += 1;
			}
		break;
		
		case 3://Zeitänderungen
			daytime = 5;
     b66:	25 e0       	ldi	r18, 0x05	; 5
     b68:	2e af       	std	Y+62, r18	; 0x3e
     b6a:	36 c1       	rjmp	.+620    	; 0xdd8 <__LOCK_REGION_LENGTH__+0x9d8>
						zwischenspeicher_sekunden = 0;
					}
				break;
				case 1: //hours
					//nächster modus
					if(button_L){
     b6c:	16 14       	cp	r1, r6
     b6e:	17 04       	cpc	r1, r7
     b70:	2c f4       	brge	.+10     	; 0xb7c <__LOCK_REGION_LENGTH__+0x77c>
						kalender_modes += 1;
     b72:	3f ad       	ldd	r19, Y+63	; 0x3f
     b74:	3f 5f       	subi	r19, 0xFF	; 255
     b76:	3f af       	std	Y+63, r19	; 0x3f
						clock_light = 1;
     b78:	22 24       	eor	r2, r2
     b7a:	23 94       	inc	r2
					}
					if(button_A){
     b7c:	14 14       	cp	r1, r4
     b7e:	15 04       	cpc	r1, r5
     b80:	3c f4       	brge	.+14     	; 0xb90 <__LOCK_REGION_LENGTH__+0x790>
						zwischenspeicher_stunden += 1;
     b82:	28 96       	adiw	r28, 0x08	; 8
     b84:	5f ad       	ldd	r21, Y+63	; 0x3f
     b86:	28 97       	sbiw	r28, 0x08	; 8
     b88:	5f 5f       	subi	r21, 0xFF	; 255
     b8a:	28 96       	adiw	r28, 0x08	; 8
     b8c:	5f af       	std	Y+63, r21	; 0x3f
     b8e:	28 97       	sbiw	r28, 0x08	; 8
					}
					if(zwischenspeicher_stunden >23){
     b90:	28 96       	adiw	r28, 0x08	; 8
     b92:	6f ad       	ldd	r22, Y+63	; 0x3f
     b94:	28 97       	sbiw	r28, 0x08	; 8
     b96:	68 31       	cpi	r22, 0x18	; 24
     b98:	08 f0       	brcs	.+2      	; 0xb9c <__LOCK_REGION_LENGTH__+0x79c>
     b9a:	ed c0       	rjmp	.+474    	; 0xd76 <__LOCK_REGION_LENGTH__+0x976>
				clock_modes += 1;
			}
		break;
		
		case 3://Zeitänderungen
			daytime = 5;
     b9c:	85 e0       	ldi	r24, 0x05	; 5
     b9e:	8e af       	std	Y+62, r24	; 0x3e
     ba0:	1b c1       	rjmp	.+566    	; 0xdd8 <__LOCK_REGION_LENGTH__+0x9d8>
						zwischenspeicher_stunden = 0;
					}
				break;
				case 2: //minutes
					//nächster modus
					if(button_L){
     ba2:	16 14       	cp	r1, r6
     ba4:	17 04       	cpc	r1, r7
     ba6:	2c f4       	brge	.+10     	; 0xbb2 <__LOCK_REGION_LENGTH__+0x7b2>
						kalender_modes += 1;
     ba8:	9f ad       	ldd	r25, Y+63	; 0x3f
     baa:	9f 5f       	subi	r25, 0xFF	; 255
     bac:	9f af       	std	Y+63, r25	; 0x3f
						clock_light = 1;
     bae:	22 24       	eor	r2, r2
     bb0:	23 94       	inc	r2
					}
					if(button_A){
     bb2:	14 14       	cp	r1, r4
     bb4:	15 04       	cpc	r1, r5
     bb6:	3c f4       	brge	.+14     	; 0xbc6 <__LOCK_REGION_LENGTH__+0x7c6>
						zwischenspeicher_minuten += 1;
     bb8:	2b 96       	adiw	r28, 0x0b	; 11
     bba:	ef ad       	ldd	r30, Y+63	; 0x3f
     bbc:	2b 97       	sbiw	r28, 0x0b	; 11
     bbe:	ef 5f       	subi	r30, 0xFF	; 255
     bc0:	2b 96       	adiw	r28, 0x0b	; 11
     bc2:	ef af       	std	Y+63, r30	; 0x3f
     bc4:	2b 97       	sbiw	r28, 0x0b	; 11
					}
					if(zwischenspeicher_minuten > 59){
     bc6:	2b 96       	adiw	r28, 0x0b	; 11
     bc8:	ff ad       	ldd	r31, Y+63	; 0x3f
     bca:	2b 97       	sbiw	r28, 0x0b	; 11
     bcc:	fc 33       	cpi	r31, 0x3C	; 60
     bce:	08 f0       	brcs	.+2      	; 0xbd2 <__LOCK_REGION_LENGTH__+0x7d2>
     bd0:	d8 c0       	rjmp	.+432    	; 0xd82 <__LOCK_REGION_LENGTH__+0x982>
				clock_modes += 1;
			}
		break;
		
		case 3://Zeitänderungen
			daytime = 5;
     bd2:	25 e0       	ldi	r18, 0x05	; 5
     bd4:	2e af       	std	Y+62, r18	; 0x3e
     bd6:	00 c1       	rjmp	.+512    	; 0xdd8 <__LOCK_REGION_LENGTH__+0x9d8>
						zwischenspeicher_minuten = 0;
					}
				break;
				case 3: //month
					//nächster modus
					if(button_L){
     bd8:	16 14       	cp	r1, r6
     bda:	17 04       	cpc	r1, r7
     bdc:	2c f4       	brge	.+10     	; 0xbe8 <__LOCK_REGION_LENGTH__+0x7e8>
						kalender_modes += 1;
     bde:	3f ad       	ldd	r19, Y+63	; 0x3f
     be0:	3f 5f       	subi	r19, 0xFF	; 255
     be2:	3f af       	std	Y+63, r19	; 0x3f
						clock_light = 1;
     be4:	22 24       	eor	r2, r2
					}
					if(button_A){
     be6:	23 94       	inc	r2
     be8:	14 14       	cp	r1, r4
     bea:	15 04       	cpc	r1, r5
						zwischenspeicher_monate += 1;
     bec:	3c f4       	brge	.+14     	; 0xbfc <__LOCK_REGION_LENGTH__+0x7fc>
     bee:	2c 96       	adiw	r28, 0x0c	; 12
     bf0:	5f ad       	ldd	r21, Y+63	; 0x3f
     bf2:	2c 97       	sbiw	r28, 0x0c	; 12
     bf4:	5f 5f       	subi	r21, 0xFF	; 255
     bf6:	2c 96       	adiw	r28, 0x0c	; 12
     bf8:	5f af       	std	Y+63, r21	; 0x3f
					}
					if(zwischenspeicher_monate>12){
     bfa:	2c 97       	sbiw	r28, 0x0c	; 12
     bfc:	2c 96       	adiw	r28, 0x0c	; 12
     bfe:	6f ad       	ldd	r22, Y+63	; 0x3f
     c00:	2c 97       	sbiw	r28, 0x0c	; 12
     c02:	6d 30       	cpi	r22, 0x0D	; 13
						zwischenspeicher_monate = 1;
     c04:	20 f0       	brcs	.+8      	; 0xc0e <__LOCK_REGION_LENGTH__+0x80e>
     c06:	81 e0       	ldi	r24, 0x01	; 1
     c08:	2c 96       	adiw	r28, 0x0c	; 12
     c0a:	8f af       	std	Y+63, r24	; 0x3f
					}
					lcdWriteText(1,0,"%u       ",zwischenspeicher_monate);
     c0c:	2c 97       	sbiw	r28, 0x0c	; 12
     c0e:	1f 92       	push	r1
     c10:	2c 96       	adiw	r28, 0x0c	; 12
     c12:	9f ad       	ldd	r25, Y+63	; 0x3f
     c14:	2c 97       	sbiw	r28, 0x0c	; 12
     c16:	9f 93       	push	r25
     c18:	89 e6       	ldi	r24, 0x69	; 105
     c1a:	92 e0       	ldi	r25, 0x02	; 2
     c1c:	9f 93       	push	r25
     c1e:	8f 93       	push	r24
     c20:	1f 92       	push	r1
     c22:	81 e0       	ldi	r24, 0x01	; 1
     c24:	8f 93       	push	r24
     c26:	e7 d1       	rcall	.+974    	; 0xff6 <lcdWriteText>
				break;
     c28:	0f 90       	pop	r0
     c2a:	0f 90       	pop	r0
     c2c:	0f 90       	pop	r0
     c2e:	0f 90       	pop	r0
     c30:	0f 90       	pop	r0
     c32:	0f 90       	pop	r0
				clock_modes += 1;
			}
		break;
		
		case 3://Zeitänderungen
			daytime = 5;
     c34:	e5 e0       	ldi	r30, 0x05	; 5
     c36:	ee af       	std	Y+62, r30	; 0x3e
					}
					if(zwischenspeicher_monate>12){
						zwischenspeicher_monate = 1;
					}
					lcdWriteText(1,0,"%u       ",zwischenspeicher_monate);
				break;
     c38:	cf c0       	rjmp	.+414    	; 0xdd8 <__LOCK_REGION_LENGTH__+0x9d8>
				case 4: //date
					//nächster modus
					if(button_L){
     c3a:	16 14       	cp	r1, r6
     c3c:	17 04       	cpc	r1, r7
     c3e:	2c f4       	brge	.+10     	; 0xc4a <__LOCK_REGION_LENGTH__+0x84a>
						kalender_modes += 1;
     c40:	ff ad       	ldd	r31, Y+63	; 0x3f
     c42:	ff 5f       	subi	r31, 0xFF	; 255
						clock_light = 1;
     c44:	ff af       	std	Y+63, r31	; 0x3f
     c46:	22 24       	eor	r2, r2
					}
					if(button_A){
     c48:	23 94       	inc	r2
     c4a:	14 14       	cp	r1, r4
     c4c:	15 04       	cpc	r1, r5
						zwischenspeicher_datum += 1;
     c4e:	3c f4       	brge	.+14     	; 0xc5e <__LOCK_REGION_LENGTH__+0x85e>
     c50:	2d 96       	adiw	r28, 0x0d	; 13
     c52:	2f ad       	ldd	r18, Y+63	; 0x3f
     c54:	2d 97       	sbiw	r28, 0x0d	; 13
     c56:	2f 5f       	subi	r18, 0xFF	; 255
     c58:	2d 96       	adiw	r28, 0x0d	; 13
     c5a:	2f af       	std	Y+63, r18	; 0x3f
					}
					if(zwischenspeicher_datum >31){
     c5c:	2d 97       	sbiw	r28, 0x0d	; 13
     c5e:	2d 96       	adiw	r28, 0x0d	; 13
     c60:	3f ad       	ldd	r19, Y+63	; 0x3f
     c62:	2d 97       	sbiw	r28, 0x0d	; 13
     c64:	30 32       	cpi	r19, 0x20	; 32
						zwischenspeicher_datum = 1;
     c66:	20 f0       	brcs	.+8      	; 0xc70 <__LOCK_REGION_LENGTH__+0x870>
     c68:	51 e0       	ldi	r21, 0x01	; 1
     c6a:	2d 96       	adiw	r28, 0x0d	; 13
     c6c:	5f af       	std	Y+63, r21	; 0x3f

					}
					lcdWriteText(0,18,"%u ",zwischenspeicher_datum);
     c6e:	2d 97       	sbiw	r28, 0x0d	; 13
     c70:	1f 92       	push	r1
     c72:	2d 96       	adiw	r28, 0x0d	; 13
     c74:	6f ad       	ldd	r22, Y+63	; 0x3f
     c76:	2d 97       	sbiw	r28, 0x0d	; 13
     c78:	6f 93       	push	r22
     c7a:	83 e7       	ldi	r24, 0x73	; 115
     c7c:	92 e0       	ldi	r25, 0x02	; 2
     c7e:	9f 93       	push	r25
     c80:	8f 93       	push	r24
     c82:	82 e1       	ldi	r24, 0x12	; 18
     c84:	8f 93       	push	r24
     c86:	1f 92       	push	r1
     c88:	b6 d1       	rcall	.+876    	; 0xff6 <lcdWriteText>
				break;
     c8a:	0f 90       	pop	r0
     c8c:	0f 90       	pop	r0
     c8e:	0f 90       	pop	r0
     c90:	0f 90       	pop	r0
     c92:	0f 90       	pop	r0
     c94:	0f 90       	pop	r0
				clock_modes += 1;
			}
		break;
		
		case 3://Zeitänderungen
			daytime = 5;
     c96:	85 e0       	ldi	r24, 0x05	; 5
     c98:	8e af       	std	Y+62, r24	; 0x3e
					if(zwischenspeicher_datum >31){
						zwischenspeicher_datum = 1;

					}
					lcdWriteText(0,18,"%u ",zwischenspeicher_datum);
				break;
     c9a:	9e c0       	rjmp	.+316    	; 0xdd8 <__LOCK_REGION_LENGTH__+0x9d8>
				case 5://weekday
					if(button_A){
     c9c:	14 14       	cp	r1, r4
     c9e:	15 04       	cpc	r1, r5
     ca0:	3c f4       	brge	.+14     	; 0xcb0 <__LOCK_REGION_LENGTH__+0x8b0>
						zwischenspeicher_wochentag += 1;
     ca2:	2e 96       	adiw	r28, 0x0e	; 14
     ca4:	9f ad       	ldd	r25, Y+63	; 0x3f
     ca6:	2e 97       	sbiw	r28, 0x0e	; 14
     ca8:	9f 5f       	subi	r25, 0xFF	; 255
     caa:	2e 96       	adiw	r28, 0x0e	; 14
     cac:	9f af       	std	Y+63, r25	; 0x3f
					}
					if(zwischenspeicher_wochentag >6){
     cae:	2e 97       	sbiw	r28, 0x0e	; 14
     cb0:	2e 96       	adiw	r28, 0x0e	; 14
     cb2:	ef ad       	ldd	r30, Y+63	; 0x3f
     cb4:	2e 97       	sbiw	r28, 0x0e	; 14
     cb6:	e7 30       	cpi	r30, 0x07	; 7
						zwischenspeicher_wochentag = 0;
     cb8:	18 f0       	brcs	.+6      	; 0xcc0 <__LOCK_REGION_LENGTH__+0x8c0>
     cba:	2e 96       	adiw	r28, 0x0e	; 14
     cbc:	1f ae       	std	Y+63, r1	; 0x3f
					}
					lcdWriteText(0,3,"%s       ",week_days[zwischenspeicher_wochentag]);
     cbe:	2e 97       	sbiw	r28, 0x0e	; 14
     cc0:	2e 96       	adiw	r28, 0x0e	; 14
     cc2:	2f ad       	ldd	r18, Y+63	; 0x3f
     cc4:	2e 97       	sbiw	r28, 0x0e	; 14
     cc6:	e2 2f       	mov	r30, r18
     cc8:	f0 e0       	ldi	r31, 0x00	; 0
     cca:	ee 0f       	add	r30, r30
     ccc:	ff 1f       	adc	r31, r31
     cce:	81 e0       	ldi	r24, 0x01	; 1
     cd0:	90 e0       	ldi	r25, 0x00	; 0
     cd2:	8c 0f       	add	r24, r28
     cd4:	9d 1f       	adc	r25, r29
     cd6:	e8 0f       	add	r30, r24
     cd8:	f9 1f       	adc	r31, r25
     cda:	85 85       	ldd	r24, Z+13	; 0x0d
     cdc:	8f 93       	push	r24
     cde:	84 85       	ldd	r24, Z+12	; 0x0c
     ce0:	8f 93       	push	r24
     ce2:	87 e7       	ldi	r24, 0x77	; 119
     ce4:	92 e0       	ldi	r25, 0x02	; 2
     ce6:	9f 93       	push	r25
     ce8:	8f 93       	push	r24
     cea:	83 e0       	ldi	r24, 0x03	; 3
     cec:	8f 93       	push	r24
     cee:	1f 92       	push	r1
     cf0:	82 d1       	rcall	.+772    	; 0xff6 <lcdWriteText>
					if(button_c){
     cf2:	0f 90       	pop	r0
     cf4:	0f 90       	pop	r0
     cf6:	0f 90       	pop	r0
     cf8:	0f 90       	pop	r0
     cfa:	0f 90       	pop	r0
     cfc:	0f 90       	pop	r0
     cfe:	ea a9       	ldd	r30, Y+50	; 0x32
     d00:	fb a9       	ldd	r31, Y+51	; 0x33
     d02:	1e 16       	cp	r1, r30
     d04:	1f 06       	cpc	r1, r31
     d06:	0c f0       	brlt	.+2      	; 0xd0a <__LOCK_REGION_LENGTH__+0x90a>
     d08:	42 c0       	rjmp	.+132    	; 0xd8e <__LOCK_REGION_LENGTH__+0x98e>
						kalender_modes = 0;
						seconds = zwischenspeicher_sekunden;
						minutes = zwischenspeicher_minuten;
						hour_24h = zwischenspeicher_stunden;
						if(zwischenspeicher_stunden>11){
     d0a:	28 96       	adiw	r28, 0x08	; 8
     d0c:	ff ad       	ldd	r31, Y+63	; 0x3f
     d0e:	28 97       	sbiw	r28, 0x08	; 8
     d10:	fc 30       	cpi	r31, 0x0C	; 12
     d12:	08 f4       	brcc	.+2      	; 0xd16 <__LOCK_REGION_LENGTH__+0x916>
     d14:	3f c0       	rjmp	.+126    	; 0xd94 <__LOCK_REGION_LENGTH__+0x994>
							hour_12h = zwischenspeicher_stunden - 12;
     d16:	fc 50       	subi	r31, 0x0C	; 12
     d18:	fe a7       	std	Y+46, r31	; 0x2e
						else{
							hour_12h = zwischenspeicher_stunden;
						}
						month = zwischenspeicher_monate;
						date_day = zwischenspeicher_datum;
						day_of_the_week = zwischenspeicher_wochentag;
     d1a:	2e 96       	adiw	r28, 0x0e	; 14
     d1c:	2f ad       	ldd	r18, Y+63	; 0x3f
     d1e:	2e 97       	sbiw	r28, 0x0e	; 14
     d20:	21 96       	adiw	r28, 0x01	; 1
     d22:	2f af       	std	Y+63, r18	; 0x3f
     d24:	21 97       	sbiw	r28, 0x01	; 1
							hour_12h = zwischenspeicher_stunden - 12;
						}
						else{
							hour_12h = zwischenspeicher_stunden;
						}
						month = zwischenspeicher_monate;
     d26:	2c 96       	adiw	r28, 0x0c	; 12
     d28:	3f ad       	ldd	r19, Y+63	; 0x3f
     d2a:	2c 97       	sbiw	r28, 0x0c	; 12
     d2c:	3b a7       	std	Y+43, r19	; 0x2b
						date_day = zwischenspeicher_datum;
     d2e:	2d 96       	adiw	r28, 0x0d	; 13
     d30:	5f ad       	ldd	r21, Y+63	; 0x3f
     d32:	2d 97       	sbiw	r28, 0x0d	; 13
     d34:	5f a7       	std	Y+47, r21	; 0x2f
						zwischenspeicher_wochentag = 0;
					}
					lcdWriteText(0,3,"%s       ",week_days[zwischenspeicher_wochentag]);
					if(button_c){
						kalender_modes = 0;
						seconds = zwischenspeicher_sekunden;
     d36:	2a 96       	adiw	r28, 0x0a	; 10
     d38:	6f ad       	ldd	r22, Y+63	; 0x3f
     d3a:	2a 97       	sbiw	r28, 0x0a	; 10
     d3c:	68 ab       	std	Y+48, r22	; 0x30
						minutes = zwischenspeicher_minuten;
     d3e:	2b 96       	adiw	r28, 0x0b	; 11
     d40:	8f ad       	ldd	r24, Y+63	; 0x3f
     d42:	2b 97       	sbiw	r28, 0x0b	; 11
     d44:	8c a7       	std	Y+44, r24	; 0x2c
						hour_24h = zwischenspeicher_stunden;
     d46:	28 96       	adiw	r28, 0x08	; 8
     d48:	9f ac       	ldd	r9, Y+63	; 0x3f
     d4a:	28 97       	sbiw	r28, 0x08	; 8
					if(zwischenspeicher_wochentag >6){
						zwischenspeicher_wochentag = 0;
					}
					lcdWriteText(0,3,"%s       ",week_days[zwischenspeicher_wochentag]);
					if(button_c){
						kalender_modes = 0;
     d4c:	1f ae       	std	Y+63, r1	; 0x3f
				clock_modes += 1;
			}
		break;
		
		case 3://Zeitänderungen
			daytime = 5;
     d4e:	95 e0       	ldi	r25, 0x05	; 5
     d50:	9e af       	std	Y+62, r25	; 0x3e
						}
						month = zwischenspeicher_monate;
						date_day = zwischenspeicher_datum;
						day_of_the_week = zwischenspeicher_wochentag;
						clock_modes = 0;
						entry_flag = 0;
     d52:	26 96       	adiw	r28, 0x06	; 6
     d54:	1f ae       	std	Y+63, r1	; 0x3f
     d56:	26 97       	sbiw	r28, 0x06	; 6
							hour_12h = zwischenspeicher_stunden;
						}
						month = zwischenspeicher_monate;
						date_day = zwischenspeicher_datum;
						day_of_the_week = zwischenspeicher_wochentag;
						clock_modes = 0;
     d58:	81 2c       	mov	r8, r1
     d5a:	3e c0       	rjmp	.+124    	; 0xdd8 <__LOCK_REGION_LENGTH__+0x9d8>
				case 2: // minutes
					if(button_A){
						wecker_minuten += 1;
					}
					if(wecker_minuten>59){
						wecker_minuten = 0;
     d5c:	24 96       	adiw	r28, 0x04	; 4
     d5e:	1f ae       	std	Y+63, r1	; 0x3f
     d60:	24 97       	sbiw	r28, 0x04	; 4
     d62:	3a c0       	rjmp	.+116    	; 0xdd8 <__LOCK_REGION_LENGTH__+0x9d8>
				clock_modes += 1;
			}
		break;
		
		case 3://Zeitänderungen
			daytime = 5;
     d64:	e5 e0       	ldi	r30, 0x05	; 5
     d66:	ee af       	std	Y+62, r30	; 0x3e
     d68:	37 c0       	rjmp	.+110    	; 0xdd8 <__LOCK_REGION_LENGTH__+0x9d8>
					}
					if(button_A){
						zwischenspeicher_sekunden += 1;
					}
					if(zwischenspeicher_sekunden>59){
						zwischenspeicher_sekunden = 0;
     d6a:	2a 96       	adiw	r28, 0x0a	; 10
     d6c:	1f ae       	std	Y+63, r1	; 0x3f
     d6e:	2a 97       	sbiw	r28, 0x0a	; 10
				clock_modes += 1;
			}
		break;
		
		case 3://Zeitänderungen
			daytime = 5;
     d70:	f5 e0       	ldi	r31, 0x05	; 5
     d72:	fe af       	std	Y+62, r31	; 0x3e
     d74:	31 c0       	rjmp	.+98     	; 0xdd8 <__LOCK_REGION_LENGTH__+0x9d8>
					}
					if(button_A){
						zwischenspeicher_stunden += 1;
					}
					if(zwischenspeicher_stunden >23){
						zwischenspeicher_stunden = 0;
     d76:	28 96       	adiw	r28, 0x08	; 8
     d78:	1f ae       	std	Y+63, r1	; 0x3f
     d7a:	28 97       	sbiw	r28, 0x08	; 8
				clock_modes += 1;
			}
		break;
		
		case 3://Zeitänderungen
			daytime = 5;
     d7c:	25 e0       	ldi	r18, 0x05	; 5
     d7e:	2e af       	std	Y+62, r18	; 0x3e
     d80:	2b c0       	rjmp	.+86     	; 0xdd8 <__LOCK_REGION_LENGTH__+0x9d8>
					}
					if(button_A){
						zwischenspeicher_minuten += 1;
					}
					if(zwischenspeicher_minuten > 59){
						zwischenspeicher_minuten = 0;
     d82:	2b 96       	adiw	r28, 0x0b	; 11
     d84:	1f ae       	std	Y+63, r1	; 0x3f
     d86:	2b 97       	sbiw	r28, 0x0b	; 11
				clock_modes += 1;
			}
		break;
		
		case 3://Zeitänderungen
			daytime = 5;
     d88:	35 e0       	ldi	r19, 0x05	; 5
     d8a:	3e af       	std	Y+62, r19	; 0x3e
     d8c:	25 c0       	rjmp	.+74     	; 0xdd8 <__LOCK_REGION_LENGTH__+0x9d8>
     d8e:	55 e0       	ldi	r21, 0x05	; 5
     d90:	5e af       	std	Y+62, r21	; 0x3e
     d92:	22 c0       	rjmp	.+68     	; 0xdd8 <__LOCK_REGION_LENGTH__+0x9d8>
						else{
							hour_12h = zwischenspeicher_stunden;
						}
						month = zwischenspeicher_monate;
						date_day = zwischenspeicher_datum;
						day_of_the_week = zwischenspeicher_wochentag;
     d94:	2e 96       	adiw	r28, 0x0e	; 14
     d96:	6f ad       	ldd	r22, Y+63	; 0x3f
     d98:	2e 97       	sbiw	r28, 0x0e	; 14
     d9a:	21 96       	adiw	r28, 0x01	; 1
							hour_12h = zwischenspeicher_stunden - 12;
						}
						else{
							hour_12h = zwischenspeicher_stunden;
						}
						month = zwischenspeicher_monate;
     d9c:	6f af       	std	Y+63, r22	; 0x3f
     d9e:	21 97       	sbiw	r28, 0x01	; 1
     da0:	2c 96       	adiw	r28, 0x0c	; 12
     da2:	8f ad       	ldd	r24, Y+63	; 0x3f
						date_day = zwischenspeicher_datum;
     da4:	2c 97       	sbiw	r28, 0x0c	; 12
     da6:	8b a7       	std	Y+43, r24	; 0x2b
     da8:	2d 96       	adiw	r28, 0x0d	; 13
     daa:	9f ad       	ldd	r25, Y+63	; 0x3f
						zwischenspeicher_wochentag = 0;
					}
					lcdWriteText(0,3,"%s       ",week_days[zwischenspeicher_wochentag]);
					if(button_c){
						kalender_modes = 0;
						seconds = zwischenspeicher_sekunden;
     dac:	2d 97       	sbiw	r28, 0x0d	; 13
     dae:	9f a7       	std	Y+47, r25	; 0x2f
     db0:	2a 96       	adiw	r28, 0x0a	; 10
     db2:	ef ad       	ldd	r30, Y+63	; 0x3f
						minutes = zwischenspeicher_minuten;
     db4:	2a 97       	sbiw	r28, 0x0a	; 10
     db6:	e8 ab       	std	Y+48, r30	; 0x30
     db8:	2b 96       	adiw	r28, 0x0b	; 11
     dba:	ff ad       	ldd	r31, Y+63	; 0x3f
						hour_24h = zwischenspeicher_stunden;
						if(zwischenspeicher_stunden>11){
							hour_12h = zwischenspeicher_stunden - 12;
						}
						else{
							hour_12h = zwischenspeicher_stunden;
     dbc:	2b 97       	sbiw	r28, 0x0b	; 11
     dbe:	fc a7       	std	Y+44, r31	; 0x2c
     dc0:	28 96       	adiw	r28, 0x08	; 8
     dc2:	2f ad       	ldd	r18, Y+63	; 0x3f
					lcdWriteText(0,3,"%s       ",week_days[zwischenspeicher_wochentag]);
					if(button_c){
						kalender_modes = 0;
						seconds = zwischenspeicher_sekunden;
						minutes = zwischenspeicher_minuten;
						hour_24h = zwischenspeicher_stunden;
     dc4:	28 97       	sbiw	r28, 0x08	; 8
					if(zwischenspeicher_wochentag >6){
						zwischenspeicher_wochentag = 0;
					}
					lcdWriteText(0,3,"%s       ",week_days[zwischenspeicher_wochentag]);
					if(button_c){
						kalender_modes = 0;
     dc6:	2e a7       	std	Y+46, r18	; 0x2e
				clock_modes += 1;
			}
		break;
		
		case 3://Zeitänderungen
			daytime = 5;
     dc8:	92 2e       	mov	r9, r18
     dca:	1f ae       	std	Y+63, r1	; 0x3f
						}
						month = zwischenspeicher_monate;
						date_day = zwischenspeicher_datum;
						day_of_the_week = zwischenspeicher_wochentag;
						clock_modes = 0;
						entry_flag = 0;
     dcc:	35 e0       	ldi	r19, 0x05	; 5
     dce:	3e af       	std	Y+62, r19	; 0x3e
     dd0:	26 96       	adiw	r28, 0x06	; 6
							hour_12h = zwischenspeicher_stunden;
						}
						month = zwischenspeicher_monate;
						date_day = zwischenspeicher_datum;
						day_of_the_week = zwischenspeicher_wochentag;
						clock_modes = 0;
     dd2:	1f ae       	std	Y+63, r1	; 0x3f
				break;
			}
		break;
	}
//Ausgabe
	if(clock_light){
     dd4:	26 97       	sbiw	r28, 0x06	; 6
     dd6:	81 2c       	mov	r8, r1
		lcdLight(255);
     dd8:	22 20       	and	r2, r2
     dda:	19 f0       	breq	.+6      	; 0xde2 <__LOCK_REGION_LENGTH__+0x9e2>
     ddc:	8f ef       	ldi	r24, 0xFF	; 255
     dde:	79 d0       	rcall	.+242    	; 0xed2 <lcdLight>
	}
	else{
		lcdLight(0);
     de0:	2c ca       	rjmp	.-2984   	; 0x23a <main+0x106>
     de2:	80 e0       	ldi	r24, 0x00	; 0
     de4:	76 d0       	rcall	.+236    	; 0xed2 <lcdLight>
     de6:	29 ca       	rjmp	.-2990   	; 0x23a <main+0x106>

00000de8 <ledWriteAll>:
            }
        }
        matrix_buffer_pos += breite + Zeichenabstand;           // Position fĂĽr das nĂ¤chste Zeichen berechnen
        str_p++;                                                // Zeichen-Zeiger auf das nĂ¤chste Zeichen richten
    }
}
     de8:	82 b9       	out	0x02, r24	; 2
     dea:	95 b9       	out	0x05, r25	; 5
     dec:	08 95       	ret

00000dee <buttonReadAllPL>:
     dee:	80 91 09 01 	lds	r24, 0x0109	; 0x800109 <__TEXT_REGION_LENGTH__+0x7c0109>
     df2:	08 95       	ret

00000df4 <startSystemTimeMs>:
     df4:	83 e0       	ldi	r24, 0x03	; 3
     df6:	84 bd       	out	0x24, r24	; 36
     df8:	8b e0       	ldi	r24, 0x0B	; 11
     dfa:	85 bd       	out	0x25, r24	; 37
     dfc:	81 e0       	ldi	r24, 0x01	; 1
     dfe:	80 93 6e 00 	sts	0x006E, r24	; 0x80006e <__TEXT_REGION_LENGTH__+0x7c006e>
     e02:	89 ef       	ldi	r24, 0xF9	; 249
     e04:	87 bd       	out	0x27, r24	; 39
     e06:	08 95       	ret

00000e08 <getSystemTimeMs>:
     e08:	20 91 0f 03 	lds	r18, 0x030F	; 0x80030f <systemTimeMs>
     e0c:	30 91 10 03 	lds	r19, 0x0310	; 0x800310 <systemTimeMs+0x1>
     e10:	40 91 11 03 	lds	r20, 0x0311	; 0x800311 <systemTimeMs+0x2>
     e14:	50 91 12 03 	lds	r21, 0x0312	; 0x800312 <systemTimeMs+0x3>
     e18:	60 91 13 03 	lds	r22, 0x0313	; 0x800313 <systemTimeMs+0x4>
     e1c:	70 91 14 03 	lds	r23, 0x0314	; 0x800314 <systemTimeMs+0x5>
     e20:	80 91 15 03 	lds	r24, 0x0315	; 0x800315 <systemTimeMs+0x6>
     e24:	90 91 16 03 	lds	r25, 0x0316	; 0x800316 <systemTimeMs+0x7>
     e28:	08 95       	ret

00000e2a <initAdc>:
     e2a:	11 ba       	out	0x11, r1	; 17
     e2c:	10 ba       	out	0x10, r1	; 16
     e2e:	10 92 08 01 	sts	0x0108, r1	; 0x800108 <__TEXT_REGION_LENGTH__+0x7c0108>
     e32:	10 92 07 01 	sts	0x0107, r1	; 0x800107 <__TEXT_REGION_LENGTH__+0x7c0107>
     e36:	80 e4       	ldi	r24, 0x40	; 64
     e38:	80 93 7c 00 	sts	0x007C, r24	; 0x80007c <__TEXT_REGION_LENGTH__+0x7c007c>
     e3c:	8f e0       	ldi	r24, 0x0F	; 15
     e3e:	80 93 7e 00 	sts	0x007E, r24	; 0x80007e <__TEXT_REGION_LENGTH__+0x7c007e>
     e42:	8f ef       	ldi	r24, 0xFF	; 255
     e44:	80 93 7d 00 	sts	0x007D, r24	; 0x80007d <__TEXT_REGION_LENGTH__+0x7c007d>
     e48:	87 e8       	ldi	r24, 0x87	; 135
     e4a:	80 93 7a 00 	sts	0x007A, r24	; 0x80007a <__TEXT_REGION_LENGTH__+0x7c007a>
     e4e:	10 92 7b 00 	sts	0x007B, r1	; 0x80007b <__TEXT_REGION_LENGTH__+0x7c007b>
     e52:	08 95       	ret

00000e54 <rgbWrite>:
     e54:	2f ef       	ldi	r18, 0xFF	; 255
     e56:	33 e0       	ldi	r19, 0x03	; 3
     e58:	f9 01       	movw	r30, r18
     e5a:	e8 1b       	sub	r30, r24
     e5c:	f9 0b       	sbc	r31, r25
     e5e:	c9 01       	movw	r24, r18
     e60:	86 1b       	sub	r24, r22
     e62:	97 0b       	sbc	r25, r23
     e64:	24 1b       	sub	r18, r20
     e66:	35 0b       	sbc	r19, r21
     e68:	f0 93 a9 00 	sts	0x00A9, r31	; 0x8000a9 <__TEXT_REGION_LENGTH__+0x7c00a9>
     e6c:	e0 93 a8 00 	sts	0x00A8, r30	; 0x8000a8 <__TEXT_REGION_LENGTH__+0x7c00a8>
     e70:	90 93 ab 00 	sts	0x00AB, r25	; 0x8000ab <__TEXT_REGION_LENGTH__+0x7c00ab>
     e74:	80 93 aa 00 	sts	0x00AA, r24	; 0x8000aa <__TEXT_REGION_LENGTH__+0x7c00aa>
     e78:	30 93 ad 00 	sts	0x00AD, r19	; 0x8000ad <__TEXT_REGION_LENGTH__+0x7c00ad>
     e7c:	20 93 ac 00 	sts	0x00AC, r18	; 0x8000ac <__TEXT_REGION_LENGTH__+0x7c00ac>
     e80:	08 95       	ret

00000e82 <initRgb>:
     e82:	8e ef       	ldi	r24, 0xFE	; 254
     e84:	80 93 a0 00 	sts	0x00A0, r24	; 0x8000a0 <__TEXT_REGION_LENGTH__+0x7c00a0>
     e88:	8b e1       	ldi	r24, 0x1B	; 27
     e8a:	80 93 a1 00 	sts	0x00A1, r24	; 0x8000a1 <__TEXT_REGION_LENGTH__+0x7c00a1>
     e8e:	83 e0       	ldi	r24, 0x03	; 3
     e90:	80 93 a7 00 	sts	0x00A7, r24	; 0x8000a7 <__TEXT_REGION_LENGTH__+0x7c00a7>
     e94:	8f ef       	ldi	r24, 0xFF	; 255
     e96:	80 93 a6 00 	sts	0x00A6, r24	; 0x8000a6 <__TEXT_REGION_LENGTH__+0x7c00a6>
     e9a:	40 e0       	ldi	r20, 0x00	; 0
     e9c:	50 e0       	ldi	r21, 0x00	; 0
     e9e:	60 e0       	ldi	r22, 0x00	; 0
     ea0:	70 e0       	ldi	r23, 0x00	; 0
     ea2:	80 e0       	ldi	r24, 0x00	; 0
     ea4:	90 e0       	ldi	r25, 0x00	; 0
     ea6:	d6 cf       	rjmp	.-84     	; 0xe54 <rgbWrite>
     ea8:	08 95       	ret

00000eaa <lcdSid>:
     eaa:	88 23       	and	r24, r24
     eac:	21 f0       	breq	.+8      	; 0xeb6 <lcdSid+0xc>
     eae:	84 b3       	in	r24, 0x14	; 20
     eb0:	81 60       	ori	r24, 0x01	; 1
     eb2:	84 bb       	out	0x14, r24	; 20
     eb4:	08 95       	ret
     eb6:	84 b3       	in	r24, 0x14	; 20
     eb8:	8e 7f       	andi	r24, 0xFE	; 254
     eba:	84 bb       	out	0x14, r24	; 20
     ebc:	08 95       	ret

00000ebe <lcdSclk>:
     ebe:	88 23       	and	r24, r24
     ec0:	21 f0       	breq	.+8      	; 0xeca <lcdSclk+0xc>
     ec2:	84 b3       	in	r24, 0x14	; 20
     ec4:	82 60       	ori	r24, 0x02	; 2
     ec6:	84 bb       	out	0x14, r24	; 20
     ec8:	08 95       	ret
     eca:	84 b3       	in	r24, 0x14	; 20
     ecc:	8d 7f       	andi	r24, 0xFD	; 253
     ece:	84 bb       	out	0x14, r24	; 20
     ed0:	08 95       	ret

00000ed2 <lcdLight>:
     ed2:	81 11       	cpse	r24, r1
     ed4:	04 c0       	rjmp	.+8      	; 0xede <lcdLight+0xc>
     ed6:	84 b5       	in	r24, 0x24	; 36
     ed8:	8f 7d       	andi	r24, 0xDF	; 223
     eda:	84 bd       	out	0x24, r24	; 36
     edc:	08 95       	ret
     ede:	94 b5       	in	r25, 0x24	; 36
     ee0:	90 62       	ori	r25, 0x20	; 32
     ee2:	94 bd       	out	0x24, r25	; 36
     ee4:	88 bd       	out	0x28, r24	; 40
     ee6:	08 95       	ret

00000ee8 <writeLcdF>:
     ee8:	ef 92       	push	r14
     eea:	ff 92       	push	r15
     eec:	0f 93       	push	r16
     eee:	1f 93       	push	r17
     ef0:	cf 93       	push	r28
     ef2:	df 93       	push	r29
     ef4:	7c 01       	movw	r14, r24
     ef6:	eb 01       	movw	r28, r22
     ef8:	81 e0       	ldi	r24, 0x01	; 1
     efa:	d7 df       	rcall	.-82     	; 0xeaa <lcdSid>
     efc:	00 e0       	ldi	r16, 0x00	; 0
     efe:	10 e0       	ldi	r17, 0x00	; 0
     f00:	06 c0       	rjmp	.+12     	; 0xf0e <writeLcdF+0x26>
     f02:	80 e0       	ldi	r24, 0x00	; 0
     f04:	dc df       	rcall	.-72     	; 0xebe <lcdSclk>
     f06:	81 e0       	ldi	r24, 0x01	; 1
     f08:	da df       	rcall	.-76     	; 0xebe <lcdSclk>
     f0a:	0f 5f       	subi	r16, 0xFF	; 255
     f0c:	1f 4f       	sbci	r17, 0xFF	; 255
     f0e:	05 30       	cpi	r16, 0x05	; 5
     f10:	11 05       	cpc	r17, r1
     f12:	b8 f3       	brcs	.-18     	; 0xf02 <writeLcdF+0x1a>
     f14:	80 e0       	ldi	r24, 0x00	; 0
     f16:	c9 df       	rcall	.-110    	; 0xeaa <lcdSid>
     f18:	80 e0       	ldi	r24, 0x00	; 0
     f1a:	d1 df       	rcall	.-94     	; 0xebe <lcdSclk>
     f1c:	81 e0       	ldi	r24, 0x01	; 1
     f1e:	cf df       	rcall	.-98     	; 0xebe <lcdSclk>
     f20:	83 e4       	ldi	r24, 0x43	; 67
     f22:	e8 16       	cp	r14, r24
     f24:	f1 04       	cpc	r15, r1
     f26:	19 f4       	brne	.+6      	; 0xf2e <writeLcdF+0x46>
     f28:	80 e0       	ldi	r24, 0x00	; 0
     f2a:	bf df       	rcall	.-130    	; 0xeaa <lcdSid>
     f2c:	02 c0       	rjmp	.+4      	; 0xf32 <writeLcdF+0x4a>
     f2e:	81 e0       	ldi	r24, 0x01	; 1
     f30:	bc df       	rcall	.-136    	; 0xeaa <lcdSid>
     f32:	80 e0       	ldi	r24, 0x00	; 0
     f34:	c4 df       	rcall	.-120    	; 0xebe <lcdSclk>
     f36:	81 e0       	ldi	r24, 0x01	; 1
     f38:	c2 df       	rcall	.-124    	; 0xebe <lcdSclk>
     f3a:	80 e0       	ldi	r24, 0x00	; 0
     f3c:	b6 df       	rcall	.-148    	; 0xeaa <lcdSid>
     f3e:	80 e0       	ldi	r24, 0x00	; 0
     f40:	be df       	rcall	.-132    	; 0xebe <lcdSclk>
     f42:	81 e0       	ldi	r24, 0x01	; 1
     f44:	bc df       	rcall	.-136    	; 0xebe <lcdSclk>
     f46:	00 e0       	ldi	r16, 0x00	; 0
     f48:	10 e0       	ldi	r17, 0x00	; 0
     f4a:	11 c0       	rjmp	.+34     	; 0xf6e <writeLcdF+0x86>
     f4c:	80 e0       	ldi	r24, 0x00	; 0
     f4e:	b7 df       	rcall	.-146    	; 0xebe <lcdSclk>
     f50:	c0 ff       	sbrs	r28, 0
     f52:	03 c0       	rjmp	.+6      	; 0xf5a <writeLcdF+0x72>
     f54:	81 e0       	ldi	r24, 0x01	; 1
     f56:	a9 df       	rcall	.-174    	; 0xeaa <lcdSid>
     f58:	02 c0       	rjmp	.+4      	; 0xf5e <writeLcdF+0x76>
     f5a:	80 e0       	ldi	r24, 0x00	; 0
     f5c:	a6 df       	rcall	.-180    	; 0xeaa <lcdSid>
     f5e:	d6 95       	lsr	r29
     f60:	c7 95       	ror	r28
     f62:	80 e0       	ldi	r24, 0x00	; 0
     f64:	ac df       	rcall	.-168    	; 0xebe <lcdSclk>
     f66:	81 e0       	ldi	r24, 0x01	; 1
     f68:	aa df       	rcall	.-172    	; 0xebe <lcdSclk>
     f6a:	0f 5f       	subi	r16, 0xFF	; 255
     f6c:	1f 4f       	sbci	r17, 0xFF	; 255
     f6e:	04 30       	cpi	r16, 0x04	; 4
     f70:	11 05       	cpc	r17, r1
     f72:	60 f3       	brcs	.-40     	; 0xf4c <writeLcdF+0x64>
     f74:	80 e0       	ldi	r24, 0x00	; 0
     f76:	99 df       	rcall	.-206    	; 0xeaa <lcdSid>
     f78:	00 e0       	ldi	r16, 0x00	; 0
     f7a:	10 e0       	ldi	r17, 0x00	; 0
     f7c:	06 c0       	rjmp	.+12     	; 0xf8a <writeLcdF+0xa2>
     f7e:	80 e0       	ldi	r24, 0x00	; 0
     f80:	9e df       	rcall	.-196    	; 0xebe <lcdSclk>
     f82:	81 e0       	ldi	r24, 0x01	; 1
     f84:	9c df       	rcall	.-200    	; 0xebe <lcdSclk>
     f86:	0f 5f       	subi	r16, 0xFF	; 255
     f88:	1f 4f       	sbci	r17, 0xFF	; 255
     f8a:	04 30       	cpi	r16, 0x04	; 4
     f8c:	11 05       	cpc	r17, r1
     f8e:	b8 f3       	brcs	.-18     	; 0xf7e <writeLcdF+0x96>
     f90:	00 e0       	ldi	r16, 0x00	; 0
     f92:	10 e0       	ldi	r17, 0x00	; 0
     f94:	11 c0       	rjmp	.+34     	; 0xfb8 <writeLcdF+0xd0>
     f96:	80 e0       	ldi	r24, 0x00	; 0
     f98:	92 df       	rcall	.-220    	; 0xebe <lcdSclk>
     f9a:	c0 ff       	sbrs	r28, 0
     f9c:	03 c0       	rjmp	.+6      	; 0xfa4 <writeLcdF+0xbc>
     f9e:	81 e0       	ldi	r24, 0x01	; 1
     fa0:	84 df       	rcall	.-248    	; 0xeaa <lcdSid>
     fa2:	02 c0       	rjmp	.+4      	; 0xfa8 <writeLcdF+0xc0>
     fa4:	80 e0       	ldi	r24, 0x00	; 0
     fa6:	81 df       	rcall	.-254    	; 0xeaa <lcdSid>
     fa8:	d6 95       	lsr	r29
     faa:	c7 95       	ror	r28
     fac:	80 e0       	ldi	r24, 0x00	; 0
     fae:	87 df       	rcall	.-242    	; 0xebe <lcdSclk>
     fb0:	81 e0       	ldi	r24, 0x01	; 1
     fb2:	85 df       	rcall	.-246    	; 0xebe <lcdSclk>
     fb4:	0f 5f       	subi	r16, 0xFF	; 255
     fb6:	1f 4f       	sbci	r17, 0xFF	; 255
     fb8:	04 30       	cpi	r16, 0x04	; 4
     fba:	11 05       	cpc	r17, r1
     fbc:	60 f3       	brcs	.-40     	; 0xf96 <writeLcdF+0xae>
     fbe:	80 e0       	ldi	r24, 0x00	; 0
     fc0:	74 df       	rcall	.-280    	; 0xeaa <lcdSid>
     fc2:	c0 e0       	ldi	r28, 0x00	; 0
     fc4:	d0 e0       	ldi	r29, 0x00	; 0
     fc6:	05 c0       	rjmp	.+10     	; 0xfd2 <writeLcdF+0xea>
     fc8:	80 e0       	ldi	r24, 0x00	; 0
     fca:	79 df       	rcall	.-270    	; 0xebe <lcdSclk>
     fcc:	81 e0       	ldi	r24, 0x01	; 1
     fce:	77 df       	rcall	.-274    	; 0xebe <lcdSclk>
     fd0:	21 96       	adiw	r28, 0x01	; 1
     fd2:	c4 30       	cpi	r28, 0x04	; 4
     fd4:	d1 05       	cpc	r29, r1
     fd6:	c0 f3       	brcs	.-16     	; 0xfc8 <writeLcdF+0xe0>
     fd8:	81 e0       	ldi	r24, 0x01	; 1
     fda:	67 df       	rcall	.-306    	; 0xeaa <lcdSid>
     fdc:	87 ec       	ldi	r24, 0xC7	; 199
     fde:	90 e0       	ldi	r25, 0x00	; 0
     fe0:	01 97       	sbiw	r24, 0x01	; 1
     fe2:	f1 f7       	brne	.-4      	; 0xfe0 <writeLcdF+0xf8>
     fe4:	00 c0       	rjmp	.+0      	; 0xfe6 <writeLcdF+0xfe>
     fe6:	00 00       	nop
     fe8:	df 91       	pop	r29
     fea:	cf 91       	pop	r28
     fec:	1f 91       	pop	r17
     fee:	0f 91       	pop	r16
     ff0:	ff 90       	pop	r15
     ff2:	ef 90       	pop	r14
     ff4:	08 95       	ret

00000ff6 <lcdWriteText>:
     ff6:	1f 93       	push	r17
     ff8:	cf 93       	push	r28
     ffa:	df 93       	push	r29
     ffc:	cd b7       	in	r28, 0x3d	; 61
     ffe:	de b7       	in	r29, 0x3e	; 62
    1000:	65 97       	sbiw	r28, 0x15	; 21
    1002:	0f b6       	in	r0, 0x3f	; 63
    1004:	f8 94       	cli
    1006:	de bf       	out	0x3e, r29	; 62
    1008:	0f be       	out	0x3f, r0	; 63
    100a:	cd bf       	out	0x3d, r28	; 61
    100c:	9e 01       	movw	r18, r28
    100e:	20 5e       	subi	r18, 0xE0	; 224
    1010:	3f 4f       	sbci	r19, 0xFF	; 255
    1012:	4e 8d       	ldd	r20, Y+30	; 0x1e
    1014:	5f 8d       	ldd	r21, Y+31	; 0x1f
    1016:	65 e1       	ldi	r22, 0x15	; 21
    1018:	70 e0       	ldi	r23, 0x00	; 0
    101a:	ce 01       	movw	r24, r28
    101c:	01 96       	adiw	r24, 0x01	; 1
    101e:	5f d2       	rcall	.+1214   	; 0x14de <vsnprintf>
    1020:	6d 8d       	ldd	r22, Y+29	; 0x1d
    1022:	8c 8d       	ldd	r24, Y+28	; 0x1c
    1024:	90 e2       	ldi	r25, 0x20	; 32
    1026:	89 9f       	mul	r24, r25
    1028:	60 0d       	add	r22, r0
    102a:	11 24       	eor	r1, r1
    102c:	60 68       	ori	r22, 0x80	; 128
    102e:	70 e0       	ldi	r23, 0x00	; 0
    1030:	83 e4       	ldi	r24, 0x43	; 67
    1032:	90 e0       	ldi	r25, 0x00	; 0
    1034:	59 df       	rcall	.-334    	; 0xee8 <writeLcdF>
    1036:	10 e0       	ldi	r17, 0x00	; 0
    1038:	05 c0       	rjmp	.+10     	; 0x1044 <__EEPROM_REGION_LENGTH__+0x44>
    103a:	1f 5f       	subi	r17, 0xFF	; 255
    103c:	70 e0       	ldi	r23, 0x00	; 0
    103e:	84 e4       	ldi	r24, 0x44	; 68
    1040:	90 e0       	ldi	r25, 0x00	; 0
    1042:	52 df       	rcall	.-348    	; 0xee8 <writeLcdF>
    1044:	e1 e0       	ldi	r30, 0x01	; 1
    1046:	f0 e0       	ldi	r31, 0x00	; 0
    1048:	ec 0f       	add	r30, r28
    104a:	fd 1f       	adc	r31, r29
    104c:	e1 0f       	add	r30, r17
    104e:	f1 1d       	adc	r31, r1
    1050:	60 81       	ld	r22, Z
    1052:	61 11       	cpse	r22, r1
    1054:	f2 cf       	rjmp	.-28     	; 0x103a <__EEPROM_REGION_LENGTH__+0x3a>
    1056:	65 96       	adiw	r28, 0x15	; 21
    1058:	0f b6       	in	r0, 0x3f	; 63
    105a:	f8 94       	cli
    105c:	de bf       	out	0x3e, r29	; 62
    105e:	0f be       	out	0x3f, r0	; 63
    1060:	cd bf       	out	0x3d, r28	; 61
    1062:	df 91       	pop	r29
    1064:	cf 91       	pop	r28
    1066:	1f 91       	pop	r17
    1068:	08 95       	ret

0000106a <lcdCreateCustomChar>:
    106a:	0f 93       	push	r16
    106c:	1f 93       	push	r17
    106e:	cf 93       	push	r28
    1070:	9f ef       	ldi	r25, 0xFF	; 255
    1072:	98 0f       	add	r25, r24
    1074:	97 30       	cpi	r25, 0x07	; 7
    1076:	d8 f4       	brcc	.+54     	; 0x10ae <lcdCreateCustomChar+0x44>
    1078:	8b 01       	movw	r16, r22
    107a:	68 2f       	mov	r22, r24
    107c:	70 e0       	ldi	r23, 0x00	; 0
    107e:	66 0f       	add	r22, r22
    1080:	77 1f       	adc	r23, r23
    1082:	66 0f       	add	r22, r22
    1084:	77 1f       	adc	r23, r23
    1086:	66 0f       	add	r22, r22
    1088:	77 1f       	adc	r23, r23
    108a:	60 64       	ori	r22, 0x40	; 64
    108c:	83 e4       	ldi	r24, 0x43	; 67
    108e:	90 e0       	ldi	r25, 0x00	; 0
    1090:	2b df       	rcall	.-426    	; 0xee8 <writeLcdF>
    1092:	c0 e0       	ldi	r28, 0x00	; 0
    1094:	09 c0       	rjmp	.+18     	; 0x10a8 <lcdCreateCustomChar+0x3e>
    1096:	f8 01       	movw	r30, r16
    1098:	ec 0f       	add	r30, r28
    109a:	f1 1d       	adc	r31, r1
    109c:	60 81       	ld	r22, Z
    109e:	70 e0       	ldi	r23, 0x00	; 0
    10a0:	84 e4       	ldi	r24, 0x44	; 68
    10a2:	90 e0       	ldi	r25, 0x00	; 0
    10a4:	21 df       	rcall	.-446    	; 0xee8 <writeLcdF>
    10a6:	cf 5f       	subi	r28, 0xFF	; 255
    10a8:	c8 30       	cpi	r28, 0x08	; 8
    10aa:	a8 f3       	brcs	.-22     	; 0x1096 <lcdCreateCustomChar+0x2c>
    10ac:	01 c0       	rjmp	.+2      	; 0x10b0 <lcdCreateCustomChar+0x46>
    10ae:	ff cf       	rjmp	.-2      	; 0x10ae <lcdCreateCustomChar+0x44>
    10b0:	cf 91       	pop	r28
    10b2:	1f 91       	pop	r17
    10b4:	0f 91       	pop	r16
    10b6:	08 95       	ret

000010b8 <lcdClear>:
    10b8:	61 e0       	ldi	r22, 0x01	; 1
    10ba:	70 e0       	ldi	r23, 0x00	; 0
    10bc:	83 e4       	ldi	r24, 0x43	; 67
    10be:	90 e0       	ldi	r25, 0x00	; 0
    10c0:	13 df       	rcall	.-474    	; 0xee8 <writeLcdF>
    10c2:	8f e3       	ldi	r24, 0x3F	; 63
    10c4:	9f e1       	ldi	r25, 0x1F	; 31
    10c6:	01 97       	sbiw	r24, 0x01	; 1
    10c8:	f1 f7       	brne	.-4      	; 0x10c6 <lcdClear+0xe>
    10ca:	00 c0       	rjmp	.+0      	; 0x10cc <lcdClear+0x14>
    10cc:	00 00       	nop
    10ce:	8f e7       	ldi	r24, 0x7F	; 127
    10d0:	92 e0       	ldi	r25, 0x02	; 2
    10d2:	9f 93       	push	r25
    10d4:	8f 93       	push	r24
    10d6:	1f 92       	push	r1
    10d8:	1f 92       	push	r1
    10da:	8d df       	rcall	.-230    	; 0xff6 <lcdWriteText>
    10dc:	0f 90       	pop	r0
    10de:	0f 90       	pop	r0
    10e0:	0f 90       	pop	r0
    10e2:	0f 90       	pop	r0
    10e4:	08 95       	ret

000010e6 <initLcd>:
    10e6:	81 e0       	ldi	r24, 0x01	; 1
    10e8:	ea de       	rcall	.-556    	; 0xebe <lcdSclk>
    10ea:	80 e0       	ldi	r24, 0x00	; 0
    10ec:	de de       	rcall	.-580    	; 0xeaa <lcdSid>
    10ee:	64 e3       	ldi	r22, 0x34	; 52
    10f0:	70 e0       	ldi	r23, 0x00	; 0
    10f2:	83 e4       	ldi	r24, 0x43	; 67
    10f4:	90 e0       	ldi	r25, 0x00	; 0
    10f6:	f8 de       	rcall	.-528    	; 0xee8 <writeLcdF>
    10f8:	69 e0       	ldi	r22, 0x09	; 9
    10fa:	70 e0       	ldi	r23, 0x00	; 0
    10fc:	83 e4       	ldi	r24, 0x43	; 67
    10fe:	90 e0       	ldi	r25, 0x00	; 0
    1100:	f3 de       	rcall	.-538    	; 0xee8 <writeLcdF>
    1102:	60 e3       	ldi	r22, 0x30	; 48
    1104:	70 e0       	ldi	r23, 0x00	; 0
    1106:	83 e4       	ldi	r24, 0x43	; 67
    1108:	90 e0       	ldi	r25, 0x00	; 0
    110a:	ee de       	rcall	.-548    	; 0xee8 <writeLcdF>
    110c:	6c e0       	ldi	r22, 0x0C	; 12
    110e:	70 e0       	ldi	r23, 0x00	; 0
    1110:	83 e4       	ldi	r24, 0x43	; 67
    1112:	90 e0       	ldi	r25, 0x00	; 0
    1114:	e9 de       	rcall	.-558    	; 0xee8 <writeLcdF>
    1116:	d0 df       	rcall	.-96     	; 0x10b8 <lcdClear>
    1118:	67 e0       	ldi	r22, 0x07	; 7
    111a:	70 e0       	ldi	r23, 0x00	; 0
    111c:	83 e4       	ldi	r24, 0x43	; 67
    111e:	90 e0       	ldi	r25, 0x00	; 0
    1120:	e3 de       	rcall	.-570    	; 0xee8 <writeLcdF>
    1122:	80 e0       	ldi	r24, 0x00	; 0
    1124:	d6 ce       	rjmp	.-596    	; 0xed2 <lcdLight>
    1126:	08 95       	ret

00001128 <initBoard>:
    1128:	ff 92       	push	r15
    112a:	0f 93       	push	r16
    112c:	1f 93       	push	r17
    112e:	cf 93       	push	r28
    1130:	df 93       	push	r29
    1132:	c8 2f       	mov	r28, r24
    1134:	85 b7       	in	r24, 0x35	; 53
    1136:	85 bf       	out	0x35, r24	; 53
    1138:	12 b8       	out	0x02, r1	; 2
    113a:	8f ef       	ldi	r24, 0xFF	; 255
    113c:	81 b9       	out	0x01, r24	; 1
    113e:	15 b8       	out	0x05, r1	; 5
    1140:	84 b9       	out	0x04, r24	; 4
    1142:	88 b9       	out	0x08, r24	; 8
    1144:	17 b8       	out	0x07, r1	; 7
    1146:	8b b9       	out	0x0b, r24	; 11
    1148:	1a b8       	out	0x0a, r1	; 10
    114a:	8e b9       	out	0x0e, r24	; 14
    114c:	1d b8       	out	0x0d, r1	; 13
    114e:	9e b1       	in	r25, 0x0e	; 14
    1150:	9b 7f       	andi	r25, 0xFB	; 251
    1152:	9e b9       	out	0x0e, r25	; 14
    1154:	11 ba       	out	0x11, r1	; 17
    1156:	10 ba       	out	0x10, r1	; 16
    1158:	94 e0       	ldi	r25, 0x04	; 4
    115a:	94 bb       	out	0x14, r25	; 20
    115c:	93 b3       	in	r25, 0x13	; 19
    115e:	93 60       	ori	r25, 0x03	; 3
    1160:	93 bb       	out	0x13, r25	; 19
    1162:	93 b3       	in	r25, 0x13	; 19
    1164:	90 62       	ori	r25, 0x20	; 32
    1166:	93 bb       	out	0x13, r25	; 19
    1168:	97 ec       	ldi	r25, 0xC7	; 199
    116a:	90 93 02 01 	sts	0x0102, r25	; 0x800102 <__TEXT_REGION_LENGTH__+0x7c0102>
    116e:	98 e3       	ldi	r25, 0x38	; 56
    1170:	90 93 01 01 	sts	0x0101, r25	; 0x800101 <__TEXT_REGION_LENGTH__+0x7c0101>
    1174:	10 92 05 01 	sts	0x0105, r1	; 0x800105 <__TEXT_REGION_LENGTH__+0x7c0105>
    1178:	80 93 04 01 	sts	0x0104, r24	; 0x800104 <__TEXT_REGION_LENGTH__+0x7c0104>
    117c:	10 92 08 01 	sts	0x0108, r1	; 0x800108 <__TEXT_REGION_LENGTH__+0x7c0108>
    1180:	10 92 07 01 	sts	0x0107, r1	; 0x800107 <__TEXT_REGION_LENGTH__+0x7c0107>
    1184:	8c e3       	ldi	r24, 0x3C	; 60
    1186:	80 93 0b 01 	sts	0x010B, r24	; 0x80010b <__TEXT_REGION_LENGTH__+0x7c010b>
    118a:	10 92 0a 01 	sts	0x010A, r1	; 0x80010a <__TEXT_REGION_LENGTH__+0x7c010a>
    118e:	78 94       	sei
    1190:	31 de       	rcall	.-926    	; 0xdf4 <startSystemTimeMs>
    1192:	a9 df       	rcall	.-174    	; 0x10e6 <initLcd>
    1194:	4a de       	rcall	.-876    	; 0xe2a <initAdc>
    1196:	75 de       	rcall	.-790    	; 0xe82 <initRgb>
    1198:	cc 23       	and	r28, r28
    119a:	09 f4       	brne	.+2      	; 0x119e <initBoard+0x76>
    119c:	a3 c0       	rjmp	.+326    	; 0x12e4 <initBoard+0x1bc>
    119e:	8f ef       	ldi	r24, 0xFF	; 255
    11a0:	98 de       	rcall	.-720    	; 0xed2 <lcdLight>
    11a2:	40 e0       	ldi	r20, 0x00	; 0
    11a4:	50 e0       	ldi	r21, 0x00	; 0
    11a6:	6f ef       	ldi	r22, 0xFF	; 255
    11a8:	73 e0       	ldi	r23, 0x03	; 3
    11aa:	80 e0       	ldi	r24, 0x00	; 0
    11ac:	90 e0       	ldi	r25, 0x00	; 0
    11ae:	52 de       	rcall	.-860    	; 0xe54 <rgbWrite>
    11b0:	84 eb       	ldi	r24, 0xB4	; 180
    11b2:	92 e0       	ldi	r25, 0x02	; 2
    11b4:	9f 93       	push	r25
    11b6:	8f 93       	push	r24
    11b8:	1f 92       	push	r1
    11ba:	1f 92       	push	r1
    11bc:	1c df       	rcall	.-456    	; 0xff6 <lcdWriteText>
    11be:	89 ec       	ldi	r24, 0xC9	; 201
    11c0:	92 e0       	ldi	r25, 0x02	; 2
    11c2:	9f 93       	push	r25
    11c4:	8f 93       	push	r24
    11c6:	1f 92       	push	r1
    11c8:	81 e0       	ldi	r24, 0x01	; 1
    11ca:	8f 93       	push	r24
    11cc:	14 df       	rcall	.-472    	; 0xff6 <lcdWriteText>
    11ce:	8f e9       	ldi	r24, 0x9F	; 159
    11d0:	92 e0       	ldi	r25, 0x02	; 2
    11d2:	9f 93       	push	r25
    11d4:	8f 93       	push	r24
    11d6:	1f 92       	push	r1
    11d8:	82 e0       	ldi	r24, 0x02	; 2
    11da:	8f 93       	push	r24
    11dc:	0c df       	rcall	.-488    	; 0xff6 <lcdWriteText>
    11de:	8e ed       	ldi	r24, 0xDE	; 222
    11e0:	92 e0       	ldi	r25, 0x02	; 2
    11e2:	9f 93       	push	r25
    11e4:	8f 93       	push	r24
    11e6:	1f 92       	push	r1
    11e8:	83 e0       	ldi	r24, 0x03	; 3
    11ea:	8f 93       	push	r24
    11ec:	04 df       	rcall	.-504    	; 0xff6 <lcdWriteText>
    11ee:	8d b7       	in	r24, 0x3d	; 61
    11f0:	9e b7       	in	r25, 0x3e	; 62
    11f2:	40 96       	adiw	r24, 0x10	; 16
    11f4:	0f b6       	in	r0, 0x3f	; 63
    11f6:	f8 94       	cli
    11f8:	9e bf       	out	0x3e, r25	; 62
    11fa:	0f be       	out	0x3f, r0	; 63
    11fc:	8d bf       	out	0x3d, r24	; 61
    11fe:	ff 24       	eor	r15, r15
    1200:	f3 94       	inc	r15
    1202:	c0 e0       	ldi	r28, 0x00	; 0
    1204:	10 e0       	ldi	r17, 0x00	; 0
    1206:	01 e0       	ldi	r16, 0x01	; 1
    1208:	d0 e0       	ldi	r29, 0x00	; 0
    120a:	00 23       	and	r16, r16
    120c:	51 f0       	breq	.+20     	; 0x1222 <initBoard+0xfa>
    120e:	80 e0       	ldi	r24, 0x00	; 0
    1210:	90 e8       	ldi	r25, 0x80	; 128
    1212:	0d 2e       	mov	r0, r29
    1214:	02 c0       	rjmp	.+4      	; 0x121a <initBoard+0xf2>
    1216:	96 95       	lsr	r25
    1218:	87 95       	ror	r24
    121a:	0a 94       	dec	r0
    121c:	e2 f7       	brpl	.-8      	; 0x1216 <initBoard+0xee>
    121e:	e4 dd       	rcall	.-1080   	; 0xde8 <ledWriteAll>
    1220:	09 c0       	rjmp	.+18     	; 0x1234 <initBoard+0x10c>
    1222:	81 e0       	ldi	r24, 0x01	; 1
    1224:	90 e0       	ldi	r25, 0x00	; 0
    1226:	0d 2e       	mov	r0, r29
    1228:	02 c0       	rjmp	.+4      	; 0x122e <initBoard+0x106>
    122a:	88 0f       	add	r24, r24
    122c:	99 1f       	adc	r25, r25
    122e:	0a 94       	dec	r0
    1230:	e2 f7       	brpl	.-8      	; 0x122a <initBoard+0x102>
    1232:	da dd       	rcall	.-1100   	; 0xde8 <ledWriteAll>
    1234:	df 5f       	subi	r29, 0xFF	; 255
    1236:	d1 31       	cpi	r29, 0x11	; 17
    1238:	28 f0       	brcs	.+10     	; 0x1244 <initBoard+0x11c>
    123a:	81 e0       	ldi	r24, 0x01	; 1
    123c:	01 11       	cpse	r16, r1
    123e:	80 e0       	ldi	r24, 0x00	; 0
    1240:	08 2f       	mov	r16, r24
    1242:	d0 e0       	ldi	r29, 0x00	; 0
    1244:	ff 20       	and	r15, r15
    1246:	11 f0       	breq	.+4      	; 0x124c <initBoard+0x124>
    1248:	ce 5f       	subi	r28, 0xFE	; 254
    124a:	01 c0       	rjmp	.+2      	; 0x124e <initBoard+0x126>
    124c:	c2 50       	subi	r28, 0x02	; 2
    124e:	8c 2f       	mov	r24, r28
    1250:	40 de       	rcall	.-896    	; 0xed2 <lcdLight>
    1252:	ce 3f       	cpi	r28, 0xFE	; 254
    1254:	09 f4       	brne	.+2      	; 0x1258 <initBoard+0x130>
    1256:	f1 2c       	mov	r15, r1
    1258:	c8 37       	cpi	r28, 0x78	; 120
    125a:	11 f4       	brne	.+4      	; 0x1260 <initBoard+0x138>
    125c:	ff 24       	eor	r15, r15
    125e:	f3 94       	inc	r15
    1260:	11 11       	cpse	r17, r1
    1262:	17 c0       	rjmp	.+46     	; 0x1292 <initBoard+0x16a>
    1264:	c4 dd       	rcall	.-1144   	; 0xdee <buttonReadAllPL>
    1266:	83 7c       	andi	r24, 0xC3	; 195
    1268:	a1 f0       	breq	.+40     	; 0x1292 <initBoard+0x16a>
    126a:	40 e0       	ldi	r20, 0x00	; 0
    126c:	50 e0       	ldi	r21, 0x00	; 0
    126e:	66 e2       	ldi	r22, 0x26	; 38
    1270:	72 e0       	ldi	r23, 0x02	; 2
    1272:	8f ef       	ldi	r24, 0xFF	; 255
    1274:	93 e0       	ldi	r25, 0x03	; 3
    1276:	ee dd       	rcall	.-1060   	; 0xe54 <rgbWrite>
    1278:	83 ef       	ldi	r24, 0xF3	; 243
    127a:	92 e0       	ldi	r25, 0x02	; 2
    127c:	9f 93       	push	r25
    127e:	8f 93       	push	r24
    1280:	1f 92       	push	r1
    1282:	83 e0       	ldi	r24, 0x03	; 3
    1284:	8f 93       	push	r24
    1286:	b7 de       	rcall	.-658    	; 0xff6 <lcdWriteText>
    1288:	0f 90       	pop	r0
    128a:	0f 90       	pop	r0
    128c:	0f 90       	pop	r0
    128e:	0f 90       	pop	r0
    1290:	11 e0       	ldi	r17, 0x01	; 1
    1292:	11 23       	and	r17, r17
    1294:	19 f0       	breq	.+6      	; 0x129c <initBoard+0x174>
    1296:	ab dd       	rcall	.-1194   	; 0xdee <buttonReadAllPL>
    1298:	83 7c       	andi	r24, 0xC3	; 195
    129a:	39 f0       	breq	.+14     	; 0x12aa <initBoard+0x182>
    129c:	8f ef       	ldi	r24, 0xFF	; 255
    129e:	9c e7       	ldi	r25, 0x7C	; 124
    12a0:	01 97       	sbiw	r24, 0x01	; 1
    12a2:	f1 f7       	brne	.-4      	; 0x12a0 <initBoard+0x178>
    12a4:	00 c0       	rjmp	.+0      	; 0x12a6 <initBoard+0x17e>
    12a6:	00 00       	nop
    12a8:	b0 cf       	rjmp	.-160    	; 0x120a <initBoard+0xe2>
    12aa:	06 df       	rcall	.-500    	; 0x10b8 <lcdClear>
    12ac:	80 e0       	ldi	r24, 0x00	; 0
    12ae:	11 de       	rcall	.-990    	; 0xed2 <lcdLight>
    12b0:	80 e0       	ldi	r24, 0x00	; 0
    12b2:	90 e0       	ldi	r25, 0x00	; 0
    12b4:	99 dd       	rcall	.-1230   	; 0xde8 <ledWriteAll>
    12b6:	40 e0       	ldi	r20, 0x00	; 0
    12b8:	50 e0       	ldi	r21, 0x00	; 0
    12ba:	60 e0       	ldi	r22, 0x00	; 0
    12bc:	70 e0       	ldi	r23, 0x00	; 0
    12be:	80 e0       	ldi	r24, 0x00	; 0
    12c0:	90 e0       	ldi	r25, 0x00	; 0
    12c2:	c8 dd       	rcall	.-1136   	; 0xe54 <rgbWrite>
    12c4:	10 92 0f 03 	sts	0x030F, r1	; 0x80030f <systemTimeMs>
    12c8:	10 92 10 03 	sts	0x0310, r1	; 0x800310 <systemTimeMs+0x1>
    12cc:	10 92 11 03 	sts	0x0311, r1	; 0x800311 <systemTimeMs+0x2>
    12d0:	10 92 12 03 	sts	0x0312, r1	; 0x800312 <systemTimeMs+0x3>
    12d4:	10 92 13 03 	sts	0x0313, r1	; 0x800313 <systemTimeMs+0x4>
    12d8:	10 92 14 03 	sts	0x0314, r1	; 0x800314 <systemTimeMs+0x5>
    12dc:	10 92 15 03 	sts	0x0315, r1	; 0x800315 <systemTimeMs+0x6>
    12e0:	10 92 16 03 	sts	0x0316, r1	; 0x800316 <systemTimeMs+0x7>
    12e4:	df 91       	pop	r29
    12e6:	cf 91       	pop	r28
    12e8:	1f 91       	pop	r17
    12ea:	0f 91       	pop	r16
    12ec:	ff 90       	pop	r15
    12ee:	08 95       	ret

000012f0 <matrixWriteNextLine>:




void matrixWriteNextLine(void)
{
    12f0:	cf 93       	push	r28
    12f2:	df 93       	push	r29
    12f4:	cd b7       	in	r28, 0x3d	; 61
    12f6:	de b7       	in	r29, 0x3e	; 62
    12f8:	28 97       	sbiw	r28, 0x08	; 8
    12fa:	0f b6       	in	r0, 0x3f	; 63
    12fc:	f8 94       	cli
    12fe:	de bf       	out	0x3e, r29	; 62
    1300:	0f be       	out	0x3f, r0	; 63
    1302:	cd bf       	out	0x3d, r28	; 61
    const  uint8_t Bit_Muster_Tab[8] = {1,2,4,8,16,32,64,128};
    1304:	88 e0       	ldi	r24, 0x08	; 8
    1306:	ea e2       	ldi	r30, 0x2A	; 42
    1308:	f2 e0       	ldi	r31, 0x02	; 2
    130a:	de 01       	movw	r26, r28
    130c:	11 96       	adiw	r26, 0x01	; 1
    130e:	01 90       	ld	r0, Z+
    1310:	0d 92       	st	X+, r0
    1312:	8a 95       	dec	r24
    1314:	e1 f7       	brne	.-8      	; 0x130e <matrixWriteNextLine+0x1e>
    static uint16_t Zeilen_Nr, Bit_Muster;
    uint8_t i;
    
    STROBE_0;                             // Daten des Scheiberegisters nicht ins Latch schreiben
    1316:	e5 e0       	ldi	r30, 0x05	; 5
    1318:	f1 e0       	ldi	r31, 0x01	; 1
    131a:	80 81       	ld	r24, Z
    131c:	8f 7b       	andi	r24, 0xBF	; 191
    131e:	80 83       	st	Z, r24

    Bit_Muster = Bit_Muster_Tab[Zeilen_Nr]; // Bitmuster aus Tabelle holen, um mit Daten in matrix[] zu vergleichen.
    1320:	e0 91 0c 03 	lds	r30, 0x030C	; 0x80030c <Zeilen_Nr.2751>
    1324:	f0 91 0d 03 	lds	r31, 0x030D	; 0x80030d <Zeilen_Nr.2751+0x1>
    1328:	81 e0       	ldi	r24, 0x01	; 1
    132a:	90 e0       	ldi	r25, 0x00	; 0
    132c:	8c 0f       	add	r24, r28
    132e:	9d 1f       	adc	r25, r29
    1330:	e8 0f       	add	r30, r24
    1332:	f9 1f       	adc	r31, r25
    1334:	80 81       	ld	r24, Z
    1336:	90 e0       	ldi	r25, 0x00	; 0
    1338:	90 93 0b 03 	sts	0x030B, r25	; 0x80030b <__data_end+0x1>
    133c:	80 93 0a 03 	sts	0x030A, r24	; 0x80030a <__data_end>
    
    // Alle Bits seriell ins Schieberegister hineinschreiben
    for(i=0; i<Anzahl_Spalten; i++)         // Alle Spalten durchgehen und ĂĽberpĂĽfen, ob Bit gesetzt ist
    1340:	80 e0       	ldi	r24, 0x00	; 0
    1342:	26 c0       	rjmp	.+76     	; 0x1390 <matrixWriteNextLine+0xa0>
    {                                       // Vergleicht Bit-Muster der aktuellen Zeile mit Daten in matrix[]
        if((matrix[Anzahl_Spalten-1- i] & Bit_Muster) != 0)     // Ist in matrix[] das entsprechende Bit gesetzt?
    1344:	e7 e3       	ldi	r30, 0x37	; 55
    1346:	f0 e0       	ldi	r31, 0x00	; 0
    1348:	e8 1b       	sub	r30, r24
    134a:	f1 09       	sbc	r31, r1
    134c:	ee 0f       	add	r30, r30
    134e:	ff 1f       	adc	r31, r31
    1350:	e8 5e       	subi	r30, 0xE8	; 232
    1352:	fc 4f       	sbci	r31, 0xFC	; 252
    1354:	40 81       	ld	r20, Z
    1356:	51 81       	ldd	r21, Z+1	; 0x01
    1358:	20 91 0a 03 	lds	r18, 0x030A	; 0x80030a <__data_end>
    135c:	30 91 0b 03 	lds	r19, 0x030B	; 0x80030b <__data_end+0x1>
    1360:	24 23       	and	r18, r20
    1362:	35 23       	and	r19, r21
    1364:	23 2b       	or	r18, r19
    1366:	31 f0       	breq	.+12     	; 0x1374 <matrixWriteNextLine+0x84>
        { DATA_Modul_1_ON;                    //   JA:   ==> Datenbit "1" ins Schieberegister schreiben
    1368:	e5 e0       	ldi	r30, 0x05	; 5
    136a:	f1 e0       	ldi	r31, 0x01	; 1
    136c:	90 81       	ld	r25, Z
    136e:	90 62       	ori	r25, 0x20	; 32
    1370:	90 83       	st	Z, r25
    1372:	05 c0       	rjmp	.+10     	; 0x137e <matrixWriteNextLine+0x8e>
        }
        else
        { DATA_Modul_1_OFF;                   //   NEIN: ==> Datenbit "0" ins Schieberegister schreiben
    1374:	e5 e0       	ldi	r30, 0x05	; 5
    1376:	f1 e0       	ldi	r31, 0x01	; 1
    1378:	90 81       	ld	r25, Z
    137a:	9f 7d       	andi	r25, 0xDF	; 223
    137c:	90 83       	st	Z, r25
        }
        CLOCK_1;
    137e:	e5 e0       	ldi	r30, 0x05	; 5
    1380:	f1 e0       	ldi	r31, 0x01	; 1
    1382:	90 81       	ld	r25, Z
    1384:	90 61       	ori	r25, 0x10	; 16
    1386:	90 83       	st	Z, r25
        CLOCK_0;                            // Datenbit wird bei der negativen Flanke des Clock-Signals ĂĽbernommen
    1388:	90 81       	ld	r25, Z
    138a:	9f 7e       	andi	r25, 0xEF	; 239
    138c:	90 83       	st	Z, r25
    STROBE_0;                             // Daten des Scheiberegisters nicht ins Latch schreiben

    Bit_Muster = Bit_Muster_Tab[Zeilen_Nr]; // Bitmuster aus Tabelle holen, um mit Daten in matrix[] zu vergleichen.
    
    // Alle Bits seriell ins Schieberegister hineinschreiben
    for(i=0; i<Anzahl_Spalten; i++)         // Alle Spalten durchgehen und ĂĽberpĂĽfen, ob Bit gesetzt ist
    138e:	8f 5f       	subi	r24, 0xFF	; 255
    1390:	88 33       	cpi	r24, 0x38	; 56
    1392:	c0 f2       	brcs	.-80     	; 0x1344 <matrixWriteNextLine+0x54>
        }
        CLOCK_1;
        CLOCK_0;                            // Datenbit wird bei der negativen Flanke des Clock-Signals ĂĽbernommen
    }
    
    ENABLE_0;                                // +5V aller Zeilen abschalten
    1394:	e5 e0       	ldi	r30, 0x05	; 5
    1396:	f1 e0       	ldi	r31, 0x01	; 1
    1398:	80 81       	ld	r24, Z
    139a:	87 7f       	andi	r24, 0xF7	; 247
    139c:	80 83       	st	Z, r24
    PORTJ &= ~0x07;
    139e:	80 81       	ld	r24, Z
    13a0:	88 7f       	andi	r24, 0xF8	; 248
    13a2:	80 83       	st	Z, r24
    PORTJ |= Zeilen_Nr;                     // gewĂĽnschte Zeile einstellen
    13a4:	90 81       	ld	r25, Z
    13a6:	80 91 0c 03 	lds	r24, 0x030C	; 0x80030c <Zeilen_Nr.2751>
    13aa:	89 2b       	or	r24, r25
    13ac:	80 83       	st	Z, r24
    STROBE_1;                             // Daten ins Latch schreiben
    13ae:	80 81       	ld	r24, Z
    13b0:	80 64       	ori	r24, 0x40	; 64
    13b2:	80 83       	st	Z, r24
    ENABLE_1;                             // +5V Speisung der eingestellten Zeile einschalten
    13b4:	80 81       	ld	r24, Z
    13b6:	88 60       	ori	r24, 0x08	; 8
    13b8:	80 83       	st	Z, r24

    // Die Zeilen werden nacheinander eingeschaltet --> zyklisch 0,1,2,3,4,5,6,7, 0,1,2,3, ...
    if (Zeilen_Nr < 7)
    13ba:	80 91 0c 03 	lds	r24, 0x030C	; 0x80030c <Zeilen_Nr.2751>
    13be:	90 91 0d 03 	lds	r25, 0x030D	; 0x80030d <Zeilen_Nr.2751+0x1>
    13c2:	87 30       	cpi	r24, 0x07	; 7
    13c4:	91 05       	cpc	r25, r1
    13c6:	30 f4       	brcc	.+12     	; 0x13d4 <matrixWriteNextLine+0xe4>
    {
        Zeilen_Nr++;
    13c8:	01 96       	adiw	r24, 0x01	; 1
    13ca:	90 93 0d 03 	sts	0x030D, r25	; 0x80030d <Zeilen_Nr.2751+0x1>
    13ce:	80 93 0c 03 	sts	0x030C, r24	; 0x80030c <Zeilen_Nr.2751>
    13d2:	07 c0       	rjmp	.+14     	; 0x13e2 <matrixWriteNextLine+0xf2>
    }
    else
    {
        Zeilen_Nr = 0;
    13d4:	10 92 0d 03 	sts	0x030D, r1	; 0x80030d <Zeilen_Nr.2751+0x1>
    13d8:	10 92 0c 03 	sts	0x030C, r1	; 0x80030c <Zeilen_Nr.2751>
        writeTextFinished = 1;
    13dc:	81 e0       	ldi	r24, 0x01	; 1
    13de:	80 93 0e 03 	sts	0x030E, r24	; 0x80030e <writeTextFinished>
    }
    
    13e2:	28 96       	adiw	r28, 0x08	; 8
    13e4:	0f b6       	in	r0, 0x3f	; 63
    13e6:	f8 94       	cli
    13e8:	de bf       	out	0x3e, r29	; 62
    13ea:	0f be       	out	0x3f, r0	; 63
    13ec:	cd bf       	out	0x3d, r28	; 61
    13ee:	df 91       	pop	r29
    13f0:	cf 91       	pop	r28
    13f2:	08 95       	ret

000013f4 <__vector_23>:
//--------------------------------------------------------------------------------------------
// Timer 0 Overflow Interrupt ->  Wird alle 1ms aufgerufen
//--------------------------------------------------------------------------------------------

ISR(TIMER0_OVF_vect)
{
    13f4:	1f 92       	push	r1
    13f6:	0f 92       	push	r0
    13f8:	0f b6       	in	r0, 0x3f	; 63
    13fa:	0f 92       	push	r0
    13fc:	11 24       	eor	r1, r1
    13fe:	0b b6       	in	r0, 0x3b	; 59
    1400:	0f 92       	push	r0
    1402:	2f 93       	push	r18
    1404:	3f 93       	push	r19
    1406:	4f 93       	push	r20
    1408:	5f 93       	push	r21
    140a:	6f 93       	push	r22
    140c:	7f 93       	push	r23
    140e:	8f 93       	push	r24
    1410:	9f 93       	push	r25
    1412:	af 93       	push	r26
    1414:	bf 93       	push	r27
    1416:	ef 93       	push	r30
    1418:	ff 93       	push	r31
    systemTimeMs += 1;
    141a:	20 91 0f 03 	lds	r18, 0x030F	; 0x80030f <systemTimeMs>
    141e:	30 91 10 03 	lds	r19, 0x0310	; 0x800310 <systemTimeMs+0x1>
    1422:	40 91 11 03 	lds	r20, 0x0311	; 0x800311 <systemTimeMs+0x2>
    1426:	50 91 12 03 	lds	r21, 0x0312	; 0x800312 <systemTimeMs+0x3>
    142a:	60 91 13 03 	lds	r22, 0x0313	; 0x800313 <systemTimeMs+0x4>
    142e:	70 91 14 03 	lds	r23, 0x0314	; 0x800314 <systemTimeMs+0x5>
    1432:	80 91 15 03 	lds	r24, 0x0315	; 0x800315 <systemTimeMs+0x6>
    1436:	90 91 16 03 	lds	r25, 0x0316	; 0x800316 <systemTimeMs+0x7>
    143a:	a1 e0       	ldi	r26, 0x01	; 1
    143c:	2f d0       	rcall	.+94     	; 0x149c <__adddi3_s8>
    143e:	20 93 0f 03 	sts	0x030F, r18	; 0x80030f <systemTimeMs>
    1442:	30 93 10 03 	sts	0x0310, r19	; 0x800310 <systemTimeMs+0x1>
    1446:	40 93 11 03 	sts	0x0311, r20	; 0x800311 <systemTimeMs+0x2>
    144a:	50 93 12 03 	sts	0x0312, r21	; 0x800312 <systemTimeMs+0x3>
    144e:	60 93 13 03 	sts	0x0313, r22	; 0x800313 <systemTimeMs+0x4>
    1452:	70 93 14 03 	sts	0x0314, r23	; 0x800314 <systemTimeMs+0x5>
    1456:	80 93 15 03 	sts	0x0315, r24	; 0x800315 <systemTimeMs+0x6>
    145a:	90 93 16 03 	sts	0x0316, r25	; 0x800316 <systemTimeMs+0x7>

    if(matrixRunning)matrixWriteNextLine();
    145e:	80 91 17 03 	lds	r24, 0x0317	; 0x800317 <matrixRunning>
    1462:	81 11       	cpse	r24, r1
    1464:	45 df       	rcall	.-374    	; 0x12f0 <matrixWriteNextLine>
}
    1466:	ff 91       	pop	r31
    1468:	ef 91       	pop	r30
    146a:	bf 91       	pop	r27
    146c:	af 91       	pop	r26
    146e:	9f 91       	pop	r25
    1470:	8f 91       	pop	r24
    1472:	7f 91       	pop	r23
    1474:	6f 91       	pop	r22
    1476:	5f 91       	pop	r21
    1478:	4f 91       	pop	r20
    147a:	3f 91       	pop	r19
    147c:	2f 91       	pop	r18
    147e:	0f 90       	pop	r0
    1480:	0b be       	out	0x3b, r0	; 59
    1482:	0f 90       	pop	r0
    1484:	0f be       	out	0x3f, r0	; 63
    1486:	0f 90       	pop	r0
    1488:	1f 90       	pop	r1
    148a:	18 95       	reti

0000148c <__tablejump2__>:
    148c:	ee 0f       	add	r30, r30
    148e:	ff 1f       	adc	r31, r31
    1490:	88 1f       	adc	r24, r24
    1492:	8b bf       	out	0x3b, r24	; 59
    1494:	07 90       	elpm	r0, Z+
    1496:	f6 91       	elpm	r31, Z
    1498:	e0 2d       	mov	r30, r0
    149a:	19 94       	eijmp

0000149c <__adddi3_s8>:
    149c:	00 24       	eor	r0, r0
    149e:	a7 fd       	sbrc	r26, 7
    14a0:	00 94       	com	r0
    14a2:	2a 0f       	add	r18, r26
    14a4:	30 1d       	adc	r19, r0
    14a6:	40 1d       	adc	r20, r0
    14a8:	50 1d       	adc	r21, r0
    14aa:	60 1d       	adc	r22, r0
    14ac:	70 1d       	adc	r23, r0
    14ae:	80 1d       	adc	r24, r0
    14b0:	90 1d       	adc	r25, r0
    14b2:	08 95       	ret

000014b4 <__subdi3>:
    14b4:	2a 19       	sub	r18, r10
    14b6:	3b 09       	sbc	r19, r11
    14b8:	4c 09       	sbc	r20, r12
    14ba:	5d 09       	sbc	r21, r13
    14bc:	6e 09       	sbc	r22, r14
    14be:	7f 09       	sbc	r23, r15
    14c0:	80 0b       	sbc	r24, r16
    14c2:	91 0b       	sbc	r25, r17
    14c4:	08 95       	ret

000014c6 <__cmpdi2_s8>:
    14c6:	00 24       	eor	r0, r0
    14c8:	a7 fd       	sbrc	r26, 7
    14ca:	00 94       	com	r0
    14cc:	2a 17       	cp	r18, r26
    14ce:	30 05       	cpc	r19, r0
    14d0:	40 05       	cpc	r20, r0
    14d2:	50 05       	cpc	r21, r0
    14d4:	60 05       	cpc	r22, r0
    14d6:	70 05       	cpc	r23, r0
    14d8:	80 05       	cpc	r24, r0
    14da:	90 05       	cpc	r25, r0
    14dc:	08 95       	ret

000014de <vsnprintf>:
    14de:	0f 93       	push	r16
    14e0:	1f 93       	push	r17
    14e2:	cf 93       	push	r28
    14e4:	df 93       	push	r29
    14e6:	cd b7       	in	r28, 0x3d	; 61
    14e8:	de b7       	in	r29, 0x3e	; 62
    14ea:	2e 97       	sbiw	r28, 0x0e	; 14
    14ec:	0f b6       	in	r0, 0x3f	; 63
    14ee:	f8 94       	cli
    14f0:	de bf       	out	0x3e, r29	; 62
    14f2:	0f be       	out	0x3f, r0	; 63
    14f4:	cd bf       	out	0x3d, r28	; 61
    14f6:	8c 01       	movw	r16, r24
    14f8:	fa 01       	movw	r30, r20
    14fa:	86 e0       	ldi	r24, 0x06	; 6
    14fc:	8c 83       	std	Y+4, r24	; 0x04
    14fe:	1a 83       	std	Y+2, r17	; 0x02
    1500:	09 83       	std	Y+1, r16	; 0x01
    1502:	77 ff       	sbrs	r23, 7
    1504:	02 c0       	rjmp	.+4      	; 0x150a <vsnprintf+0x2c>
    1506:	60 e0       	ldi	r22, 0x00	; 0
    1508:	70 e8       	ldi	r23, 0x80	; 128
    150a:	cb 01       	movw	r24, r22
    150c:	01 97       	sbiw	r24, 0x01	; 1
    150e:	9e 83       	std	Y+6, r25	; 0x06
    1510:	8d 83       	std	Y+5, r24	; 0x05
    1512:	a9 01       	movw	r20, r18
    1514:	bf 01       	movw	r22, r30
    1516:	ce 01       	movw	r24, r28
    1518:	01 96       	adiw	r24, 0x01	; 1
    151a:	19 d0       	rcall	.+50     	; 0x154e <vfprintf>
    151c:	4d 81       	ldd	r20, Y+5	; 0x05
    151e:	5e 81       	ldd	r21, Y+6	; 0x06
    1520:	57 fd       	sbrc	r21, 7
    1522:	0a c0       	rjmp	.+20     	; 0x1538 <vsnprintf+0x5a>
    1524:	2f 81       	ldd	r18, Y+7	; 0x07
    1526:	38 85       	ldd	r19, Y+8	; 0x08
    1528:	42 17       	cp	r20, r18
    152a:	53 07       	cpc	r21, r19
    152c:	0c f4       	brge	.+2      	; 0x1530 <vsnprintf+0x52>
    152e:	9a 01       	movw	r18, r20
    1530:	f8 01       	movw	r30, r16
    1532:	e2 0f       	add	r30, r18
    1534:	f3 1f       	adc	r31, r19
    1536:	10 82       	st	Z, r1
    1538:	2e 96       	adiw	r28, 0x0e	; 14
    153a:	0f b6       	in	r0, 0x3f	; 63
    153c:	f8 94       	cli
    153e:	de bf       	out	0x3e, r29	; 62
    1540:	0f be       	out	0x3f, r0	; 63
    1542:	cd bf       	out	0x3d, r28	; 61
    1544:	df 91       	pop	r29
    1546:	cf 91       	pop	r28
    1548:	1f 91       	pop	r17
    154a:	0f 91       	pop	r16
    154c:	08 95       	ret

0000154e <vfprintf>:
    154e:	2f 92       	push	r2
    1550:	3f 92       	push	r3
    1552:	4f 92       	push	r4
    1554:	5f 92       	push	r5
    1556:	6f 92       	push	r6
    1558:	7f 92       	push	r7
    155a:	8f 92       	push	r8
    155c:	9f 92       	push	r9
    155e:	af 92       	push	r10
    1560:	bf 92       	push	r11
    1562:	cf 92       	push	r12
    1564:	df 92       	push	r13
    1566:	ef 92       	push	r14
    1568:	ff 92       	push	r15
    156a:	0f 93       	push	r16
    156c:	1f 93       	push	r17
    156e:	cf 93       	push	r28
    1570:	df 93       	push	r29
    1572:	cd b7       	in	r28, 0x3d	; 61
    1574:	de b7       	in	r29, 0x3e	; 62
    1576:	2b 97       	sbiw	r28, 0x0b	; 11
    1578:	0f b6       	in	r0, 0x3f	; 63
    157a:	f8 94       	cli
    157c:	de bf       	out	0x3e, r29	; 62
    157e:	0f be       	out	0x3f, r0	; 63
    1580:	cd bf       	out	0x3d, r28	; 61
    1582:	6c 01       	movw	r12, r24
    1584:	7b 01       	movw	r14, r22
    1586:	8a 01       	movw	r16, r20
    1588:	fc 01       	movw	r30, r24
    158a:	17 82       	std	Z+7, r1	; 0x07
    158c:	16 82       	std	Z+6, r1	; 0x06
    158e:	83 81       	ldd	r24, Z+3	; 0x03
    1590:	81 ff       	sbrs	r24, 1
    1592:	bf c1       	rjmp	.+894    	; 0x1912 <vfprintf+0x3c4>
    1594:	ce 01       	movw	r24, r28
    1596:	01 96       	adiw	r24, 0x01	; 1
    1598:	3c 01       	movw	r6, r24
    159a:	f6 01       	movw	r30, r12
    159c:	93 81       	ldd	r25, Z+3	; 0x03
    159e:	f7 01       	movw	r30, r14
    15a0:	93 fd       	sbrc	r25, 3
    15a2:	85 91       	lpm	r24, Z+
    15a4:	93 ff       	sbrs	r25, 3
    15a6:	81 91       	ld	r24, Z+
    15a8:	7f 01       	movw	r14, r30
    15aa:	88 23       	and	r24, r24
    15ac:	09 f4       	brne	.+2      	; 0x15b0 <vfprintf+0x62>
    15ae:	ad c1       	rjmp	.+858    	; 0x190a <vfprintf+0x3bc>
    15b0:	85 32       	cpi	r24, 0x25	; 37
    15b2:	39 f4       	brne	.+14     	; 0x15c2 <vfprintf+0x74>
    15b4:	93 fd       	sbrc	r25, 3
    15b6:	85 91       	lpm	r24, Z+
    15b8:	93 ff       	sbrs	r25, 3
    15ba:	81 91       	ld	r24, Z+
    15bc:	7f 01       	movw	r14, r30
    15be:	85 32       	cpi	r24, 0x25	; 37
    15c0:	21 f4       	brne	.+8      	; 0x15ca <vfprintf+0x7c>
    15c2:	b6 01       	movw	r22, r12
    15c4:	90 e0       	ldi	r25, 0x00	; 0
    15c6:	d6 d1       	rcall	.+940    	; 0x1974 <fputc>
    15c8:	e8 cf       	rjmp	.-48     	; 0x159a <vfprintf+0x4c>
    15ca:	91 2c       	mov	r9, r1
    15cc:	21 2c       	mov	r2, r1
    15ce:	31 2c       	mov	r3, r1
    15d0:	ff e1       	ldi	r31, 0x1F	; 31
    15d2:	f3 15       	cp	r31, r3
    15d4:	d8 f0       	brcs	.+54     	; 0x160c <vfprintf+0xbe>
    15d6:	8b 32       	cpi	r24, 0x2B	; 43
    15d8:	79 f0       	breq	.+30     	; 0x15f8 <vfprintf+0xaa>
    15da:	38 f4       	brcc	.+14     	; 0x15ea <vfprintf+0x9c>
    15dc:	80 32       	cpi	r24, 0x20	; 32
    15de:	79 f0       	breq	.+30     	; 0x15fe <vfprintf+0xb0>
    15e0:	83 32       	cpi	r24, 0x23	; 35
    15e2:	a1 f4       	brne	.+40     	; 0x160c <vfprintf+0xbe>
    15e4:	23 2d       	mov	r18, r3
    15e6:	20 61       	ori	r18, 0x10	; 16
    15e8:	1d c0       	rjmp	.+58     	; 0x1624 <vfprintf+0xd6>
    15ea:	8d 32       	cpi	r24, 0x2D	; 45
    15ec:	61 f0       	breq	.+24     	; 0x1606 <vfprintf+0xb8>
    15ee:	80 33       	cpi	r24, 0x30	; 48
    15f0:	69 f4       	brne	.+26     	; 0x160c <vfprintf+0xbe>
    15f2:	23 2d       	mov	r18, r3
    15f4:	21 60       	ori	r18, 0x01	; 1
    15f6:	16 c0       	rjmp	.+44     	; 0x1624 <vfprintf+0xd6>
    15f8:	83 2d       	mov	r24, r3
    15fa:	82 60       	ori	r24, 0x02	; 2
    15fc:	38 2e       	mov	r3, r24
    15fe:	e3 2d       	mov	r30, r3
    1600:	e4 60       	ori	r30, 0x04	; 4
    1602:	3e 2e       	mov	r3, r30
    1604:	2a c0       	rjmp	.+84     	; 0x165a <vfprintf+0x10c>
    1606:	f3 2d       	mov	r31, r3
    1608:	f8 60       	ori	r31, 0x08	; 8
    160a:	1d c0       	rjmp	.+58     	; 0x1646 <vfprintf+0xf8>
    160c:	37 fc       	sbrc	r3, 7
    160e:	2d c0       	rjmp	.+90     	; 0x166a <vfprintf+0x11c>
    1610:	20 ed       	ldi	r18, 0xD0	; 208
    1612:	28 0f       	add	r18, r24
    1614:	2a 30       	cpi	r18, 0x0A	; 10
    1616:	40 f0       	brcs	.+16     	; 0x1628 <vfprintf+0xda>
    1618:	8e 32       	cpi	r24, 0x2E	; 46
    161a:	b9 f4       	brne	.+46     	; 0x164a <vfprintf+0xfc>
    161c:	36 fc       	sbrc	r3, 6
    161e:	75 c1       	rjmp	.+746    	; 0x190a <vfprintf+0x3bc>
    1620:	23 2d       	mov	r18, r3
    1622:	20 64       	ori	r18, 0x40	; 64
    1624:	32 2e       	mov	r3, r18
    1626:	19 c0       	rjmp	.+50     	; 0x165a <vfprintf+0x10c>
    1628:	36 fe       	sbrs	r3, 6
    162a:	06 c0       	rjmp	.+12     	; 0x1638 <vfprintf+0xea>
    162c:	8a e0       	ldi	r24, 0x0A	; 10
    162e:	98 9e       	mul	r9, r24
    1630:	20 0d       	add	r18, r0
    1632:	11 24       	eor	r1, r1
    1634:	92 2e       	mov	r9, r18
    1636:	11 c0       	rjmp	.+34     	; 0x165a <vfprintf+0x10c>
    1638:	ea e0       	ldi	r30, 0x0A	; 10
    163a:	2e 9e       	mul	r2, r30
    163c:	20 0d       	add	r18, r0
    163e:	11 24       	eor	r1, r1
    1640:	22 2e       	mov	r2, r18
    1642:	f3 2d       	mov	r31, r3
    1644:	f0 62       	ori	r31, 0x20	; 32
    1646:	3f 2e       	mov	r3, r31
    1648:	08 c0       	rjmp	.+16     	; 0x165a <vfprintf+0x10c>
    164a:	8c 36       	cpi	r24, 0x6C	; 108
    164c:	21 f4       	brne	.+8      	; 0x1656 <vfprintf+0x108>
    164e:	83 2d       	mov	r24, r3
    1650:	80 68       	ori	r24, 0x80	; 128
    1652:	38 2e       	mov	r3, r24
    1654:	02 c0       	rjmp	.+4      	; 0x165a <vfprintf+0x10c>
    1656:	88 36       	cpi	r24, 0x68	; 104
    1658:	41 f4       	brne	.+16     	; 0x166a <vfprintf+0x11c>
    165a:	f7 01       	movw	r30, r14
    165c:	93 fd       	sbrc	r25, 3
    165e:	85 91       	lpm	r24, Z+
    1660:	93 ff       	sbrs	r25, 3
    1662:	81 91       	ld	r24, Z+
    1664:	7f 01       	movw	r14, r30
    1666:	81 11       	cpse	r24, r1
    1668:	b3 cf       	rjmp	.-154    	; 0x15d0 <vfprintf+0x82>
    166a:	98 2f       	mov	r25, r24
    166c:	9f 7d       	andi	r25, 0xDF	; 223
    166e:	95 54       	subi	r25, 0x45	; 69
    1670:	93 30       	cpi	r25, 0x03	; 3
    1672:	28 f4       	brcc	.+10     	; 0x167e <vfprintf+0x130>
    1674:	0c 5f       	subi	r16, 0xFC	; 252
    1676:	1f 4f       	sbci	r17, 0xFF	; 255
    1678:	9f e3       	ldi	r25, 0x3F	; 63
    167a:	99 83       	std	Y+1, r25	; 0x01
    167c:	0d c0       	rjmp	.+26     	; 0x1698 <vfprintf+0x14a>
    167e:	83 36       	cpi	r24, 0x63	; 99
    1680:	31 f0       	breq	.+12     	; 0x168e <vfprintf+0x140>
    1682:	83 37       	cpi	r24, 0x73	; 115
    1684:	71 f0       	breq	.+28     	; 0x16a2 <vfprintf+0x154>
    1686:	83 35       	cpi	r24, 0x53	; 83
    1688:	09 f0       	breq	.+2      	; 0x168c <vfprintf+0x13e>
    168a:	55 c0       	rjmp	.+170    	; 0x1736 <vfprintf+0x1e8>
    168c:	20 c0       	rjmp	.+64     	; 0x16ce <vfprintf+0x180>
    168e:	f8 01       	movw	r30, r16
    1690:	80 81       	ld	r24, Z
    1692:	89 83       	std	Y+1, r24	; 0x01
    1694:	0e 5f       	subi	r16, 0xFE	; 254
    1696:	1f 4f       	sbci	r17, 0xFF	; 255
    1698:	88 24       	eor	r8, r8
    169a:	83 94       	inc	r8
    169c:	91 2c       	mov	r9, r1
    169e:	53 01       	movw	r10, r6
    16a0:	12 c0       	rjmp	.+36     	; 0x16c6 <vfprintf+0x178>
    16a2:	28 01       	movw	r4, r16
    16a4:	f2 e0       	ldi	r31, 0x02	; 2
    16a6:	4f 0e       	add	r4, r31
    16a8:	51 1c       	adc	r5, r1
    16aa:	f8 01       	movw	r30, r16
    16ac:	a0 80       	ld	r10, Z
    16ae:	b1 80       	ldd	r11, Z+1	; 0x01
    16b0:	36 fe       	sbrs	r3, 6
    16b2:	03 c0       	rjmp	.+6      	; 0x16ba <vfprintf+0x16c>
    16b4:	69 2d       	mov	r22, r9
    16b6:	70 e0       	ldi	r23, 0x00	; 0
    16b8:	02 c0       	rjmp	.+4      	; 0x16be <vfprintf+0x170>
    16ba:	6f ef       	ldi	r22, 0xFF	; 255
    16bc:	7f ef       	ldi	r23, 0xFF	; 255
    16be:	c5 01       	movw	r24, r10
    16c0:	4e d1       	rcall	.+668    	; 0x195e <strnlen>
    16c2:	4c 01       	movw	r8, r24
    16c4:	82 01       	movw	r16, r4
    16c6:	f3 2d       	mov	r31, r3
    16c8:	ff 77       	andi	r31, 0x7F	; 127
    16ca:	3f 2e       	mov	r3, r31
    16cc:	15 c0       	rjmp	.+42     	; 0x16f8 <vfprintf+0x1aa>
    16ce:	28 01       	movw	r4, r16
    16d0:	22 e0       	ldi	r18, 0x02	; 2
    16d2:	42 0e       	add	r4, r18
    16d4:	51 1c       	adc	r5, r1
    16d6:	f8 01       	movw	r30, r16
    16d8:	a0 80       	ld	r10, Z
    16da:	b1 80       	ldd	r11, Z+1	; 0x01
    16dc:	36 fe       	sbrs	r3, 6
    16de:	03 c0       	rjmp	.+6      	; 0x16e6 <vfprintf+0x198>
    16e0:	69 2d       	mov	r22, r9
    16e2:	70 e0       	ldi	r23, 0x00	; 0
    16e4:	02 c0       	rjmp	.+4      	; 0x16ea <vfprintf+0x19c>
    16e6:	6f ef       	ldi	r22, 0xFF	; 255
    16e8:	7f ef       	ldi	r23, 0xFF	; 255
    16ea:	c5 01       	movw	r24, r10
    16ec:	2d d1       	rcall	.+602    	; 0x1948 <strnlen_P>
    16ee:	4c 01       	movw	r8, r24
    16f0:	f3 2d       	mov	r31, r3
    16f2:	f0 68       	ori	r31, 0x80	; 128
    16f4:	3f 2e       	mov	r3, r31
    16f6:	82 01       	movw	r16, r4
    16f8:	33 fc       	sbrc	r3, 3
    16fa:	19 c0       	rjmp	.+50     	; 0x172e <vfprintf+0x1e0>
    16fc:	82 2d       	mov	r24, r2
    16fe:	90 e0       	ldi	r25, 0x00	; 0
    1700:	88 16       	cp	r8, r24
    1702:	99 06       	cpc	r9, r25
    1704:	a0 f4       	brcc	.+40     	; 0x172e <vfprintf+0x1e0>
    1706:	b6 01       	movw	r22, r12
    1708:	80 e2       	ldi	r24, 0x20	; 32
    170a:	90 e0       	ldi	r25, 0x00	; 0
    170c:	33 d1       	rcall	.+614    	; 0x1974 <fputc>
    170e:	2a 94       	dec	r2
    1710:	f5 cf       	rjmp	.-22     	; 0x16fc <vfprintf+0x1ae>
    1712:	f5 01       	movw	r30, r10
    1714:	37 fc       	sbrc	r3, 7
    1716:	85 91       	lpm	r24, Z+
    1718:	37 fe       	sbrs	r3, 7
    171a:	81 91       	ld	r24, Z+
    171c:	5f 01       	movw	r10, r30
    171e:	b6 01       	movw	r22, r12
    1720:	90 e0       	ldi	r25, 0x00	; 0
    1722:	28 d1       	rcall	.+592    	; 0x1974 <fputc>
    1724:	21 10       	cpse	r2, r1
    1726:	2a 94       	dec	r2
    1728:	21 e0       	ldi	r18, 0x01	; 1
    172a:	82 1a       	sub	r8, r18
    172c:	91 08       	sbc	r9, r1
    172e:	81 14       	cp	r8, r1
    1730:	91 04       	cpc	r9, r1
    1732:	79 f7       	brne	.-34     	; 0x1712 <vfprintf+0x1c4>
    1734:	e1 c0       	rjmp	.+450    	; 0x18f8 <vfprintf+0x3aa>
    1736:	84 36       	cpi	r24, 0x64	; 100
    1738:	11 f0       	breq	.+4      	; 0x173e <vfprintf+0x1f0>
    173a:	89 36       	cpi	r24, 0x69	; 105
    173c:	39 f5       	brne	.+78     	; 0x178c <vfprintf+0x23e>
    173e:	f8 01       	movw	r30, r16
    1740:	37 fe       	sbrs	r3, 7
    1742:	07 c0       	rjmp	.+14     	; 0x1752 <vfprintf+0x204>
    1744:	60 81       	ld	r22, Z
    1746:	71 81       	ldd	r23, Z+1	; 0x01
    1748:	82 81       	ldd	r24, Z+2	; 0x02
    174a:	93 81       	ldd	r25, Z+3	; 0x03
    174c:	0c 5f       	subi	r16, 0xFC	; 252
    174e:	1f 4f       	sbci	r17, 0xFF	; 255
    1750:	08 c0       	rjmp	.+16     	; 0x1762 <vfprintf+0x214>
    1752:	60 81       	ld	r22, Z
    1754:	71 81       	ldd	r23, Z+1	; 0x01
    1756:	07 2e       	mov	r0, r23
    1758:	00 0c       	add	r0, r0
    175a:	88 0b       	sbc	r24, r24
    175c:	99 0b       	sbc	r25, r25
    175e:	0e 5f       	subi	r16, 0xFE	; 254
    1760:	1f 4f       	sbci	r17, 0xFF	; 255
    1762:	f3 2d       	mov	r31, r3
    1764:	ff 76       	andi	r31, 0x6F	; 111
    1766:	3f 2e       	mov	r3, r31
    1768:	97 ff       	sbrs	r25, 7
    176a:	09 c0       	rjmp	.+18     	; 0x177e <vfprintf+0x230>
    176c:	90 95       	com	r25
    176e:	80 95       	com	r24
    1770:	70 95       	com	r23
    1772:	61 95       	neg	r22
    1774:	7f 4f       	sbci	r23, 0xFF	; 255
    1776:	8f 4f       	sbci	r24, 0xFF	; 255
    1778:	9f 4f       	sbci	r25, 0xFF	; 255
    177a:	f0 68       	ori	r31, 0x80	; 128
    177c:	3f 2e       	mov	r3, r31
    177e:	2a e0       	ldi	r18, 0x0A	; 10
    1780:	30 e0       	ldi	r19, 0x00	; 0
    1782:	a3 01       	movw	r20, r6
    1784:	33 d1       	rcall	.+614    	; 0x19ec <__ultoa_invert>
    1786:	88 2e       	mov	r8, r24
    1788:	86 18       	sub	r8, r6
    178a:	44 c0       	rjmp	.+136    	; 0x1814 <vfprintf+0x2c6>
    178c:	85 37       	cpi	r24, 0x75	; 117
    178e:	31 f4       	brne	.+12     	; 0x179c <vfprintf+0x24e>
    1790:	23 2d       	mov	r18, r3
    1792:	2f 7e       	andi	r18, 0xEF	; 239
    1794:	b2 2e       	mov	r11, r18
    1796:	2a e0       	ldi	r18, 0x0A	; 10
    1798:	30 e0       	ldi	r19, 0x00	; 0
    179a:	25 c0       	rjmp	.+74     	; 0x17e6 <vfprintf+0x298>
    179c:	93 2d       	mov	r25, r3
    179e:	99 7f       	andi	r25, 0xF9	; 249
    17a0:	b9 2e       	mov	r11, r25
    17a2:	8f 36       	cpi	r24, 0x6F	; 111
    17a4:	c1 f0       	breq	.+48     	; 0x17d6 <vfprintf+0x288>
    17a6:	18 f4       	brcc	.+6      	; 0x17ae <vfprintf+0x260>
    17a8:	88 35       	cpi	r24, 0x58	; 88
    17aa:	79 f0       	breq	.+30     	; 0x17ca <vfprintf+0x27c>
    17ac:	ae c0       	rjmp	.+348    	; 0x190a <vfprintf+0x3bc>
    17ae:	80 37       	cpi	r24, 0x70	; 112
    17b0:	19 f0       	breq	.+6      	; 0x17b8 <vfprintf+0x26a>
    17b2:	88 37       	cpi	r24, 0x78	; 120
    17b4:	21 f0       	breq	.+8      	; 0x17be <vfprintf+0x270>
    17b6:	a9 c0       	rjmp	.+338    	; 0x190a <vfprintf+0x3bc>
    17b8:	e9 2f       	mov	r30, r25
    17ba:	e0 61       	ori	r30, 0x10	; 16
    17bc:	be 2e       	mov	r11, r30
    17be:	b4 fe       	sbrs	r11, 4
    17c0:	0d c0       	rjmp	.+26     	; 0x17dc <vfprintf+0x28e>
    17c2:	fb 2d       	mov	r31, r11
    17c4:	f4 60       	ori	r31, 0x04	; 4
    17c6:	bf 2e       	mov	r11, r31
    17c8:	09 c0       	rjmp	.+18     	; 0x17dc <vfprintf+0x28e>
    17ca:	34 fe       	sbrs	r3, 4
    17cc:	0a c0       	rjmp	.+20     	; 0x17e2 <vfprintf+0x294>
    17ce:	29 2f       	mov	r18, r25
    17d0:	26 60       	ori	r18, 0x06	; 6
    17d2:	b2 2e       	mov	r11, r18
    17d4:	06 c0       	rjmp	.+12     	; 0x17e2 <vfprintf+0x294>
    17d6:	28 e0       	ldi	r18, 0x08	; 8
    17d8:	30 e0       	ldi	r19, 0x00	; 0
    17da:	05 c0       	rjmp	.+10     	; 0x17e6 <vfprintf+0x298>
    17dc:	20 e1       	ldi	r18, 0x10	; 16
    17de:	30 e0       	ldi	r19, 0x00	; 0
    17e0:	02 c0       	rjmp	.+4      	; 0x17e6 <vfprintf+0x298>
    17e2:	20 e1       	ldi	r18, 0x10	; 16
    17e4:	32 e0       	ldi	r19, 0x02	; 2
    17e6:	f8 01       	movw	r30, r16
    17e8:	b7 fe       	sbrs	r11, 7
    17ea:	07 c0       	rjmp	.+14     	; 0x17fa <vfprintf+0x2ac>
    17ec:	60 81       	ld	r22, Z
    17ee:	71 81       	ldd	r23, Z+1	; 0x01
    17f0:	82 81       	ldd	r24, Z+2	; 0x02
    17f2:	93 81       	ldd	r25, Z+3	; 0x03
    17f4:	0c 5f       	subi	r16, 0xFC	; 252
    17f6:	1f 4f       	sbci	r17, 0xFF	; 255
    17f8:	06 c0       	rjmp	.+12     	; 0x1806 <vfprintf+0x2b8>
    17fa:	60 81       	ld	r22, Z
    17fc:	71 81       	ldd	r23, Z+1	; 0x01
    17fe:	80 e0       	ldi	r24, 0x00	; 0
    1800:	90 e0       	ldi	r25, 0x00	; 0
    1802:	0e 5f       	subi	r16, 0xFE	; 254
    1804:	1f 4f       	sbci	r17, 0xFF	; 255
    1806:	a3 01       	movw	r20, r6
    1808:	f1 d0       	rcall	.+482    	; 0x19ec <__ultoa_invert>
    180a:	88 2e       	mov	r8, r24
    180c:	86 18       	sub	r8, r6
    180e:	fb 2d       	mov	r31, r11
    1810:	ff 77       	andi	r31, 0x7F	; 127
    1812:	3f 2e       	mov	r3, r31
    1814:	36 fe       	sbrs	r3, 6
    1816:	0d c0       	rjmp	.+26     	; 0x1832 <vfprintf+0x2e4>
    1818:	23 2d       	mov	r18, r3
    181a:	2e 7f       	andi	r18, 0xFE	; 254
    181c:	a2 2e       	mov	r10, r18
    181e:	89 14       	cp	r8, r9
    1820:	58 f4       	brcc	.+22     	; 0x1838 <vfprintf+0x2ea>
    1822:	34 fe       	sbrs	r3, 4
    1824:	0b c0       	rjmp	.+22     	; 0x183c <vfprintf+0x2ee>
    1826:	32 fc       	sbrc	r3, 2
    1828:	09 c0       	rjmp	.+18     	; 0x183c <vfprintf+0x2ee>
    182a:	83 2d       	mov	r24, r3
    182c:	8e 7e       	andi	r24, 0xEE	; 238
    182e:	a8 2e       	mov	r10, r24
    1830:	05 c0       	rjmp	.+10     	; 0x183c <vfprintf+0x2ee>
    1832:	b8 2c       	mov	r11, r8
    1834:	a3 2c       	mov	r10, r3
    1836:	03 c0       	rjmp	.+6      	; 0x183e <vfprintf+0x2f0>
    1838:	b8 2c       	mov	r11, r8
    183a:	01 c0       	rjmp	.+2      	; 0x183e <vfprintf+0x2f0>
    183c:	b9 2c       	mov	r11, r9
    183e:	a4 fe       	sbrs	r10, 4
    1840:	0f c0       	rjmp	.+30     	; 0x1860 <vfprintf+0x312>
    1842:	fe 01       	movw	r30, r28
    1844:	e8 0d       	add	r30, r8
    1846:	f1 1d       	adc	r31, r1
    1848:	80 81       	ld	r24, Z
    184a:	80 33       	cpi	r24, 0x30	; 48
    184c:	21 f4       	brne	.+8      	; 0x1856 <vfprintf+0x308>
    184e:	9a 2d       	mov	r25, r10
    1850:	99 7e       	andi	r25, 0xE9	; 233
    1852:	a9 2e       	mov	r10, r25
    1854:	09 c0       	rjmp	.+18     	; 0x1868 <vfprintf+0x31a>
    1856:	a2 fe       	sbrs	r10, 2
    1858:	06 c0       	rjmp	.+12     	; 0x1866 <vfprintf+0x318>
    185a:	b3 94       	inc	r11
    185c:	b3 94       	inc	r11
    185e:	04 c0       	rjmp	.+8      	; 0x1868 <vfprintf+0x31a>
    1860:	8a 2d       	mov	r24, r10
    1862:	86 78       	andi	r24, 0x86	; 134
    1864:	09 f0       	breq	.+2      	; 0x1868 <vfprintf+0x31a>
    1866:	b3 94       	inc	r11
    1868:	a3 fc       	sbrc	r10, 3
    186a:	10 c0       	rjmp	.+32     	; 0x188c <vfprintf+0x33e>
    186c:	a0 fe       	sbrs	r10, 0
    186e:	06 c0       	rjmp	.+12     	; 0x187c <vfprintf+0x32e>
    1870:	b2 14       	cp	r11, r2
    1872:	80 f4       	brcc	.+32     	; 0x1894 <vfprintf+0x346>
    1874:	28 0c       	add	r2, r8
    1876:	92 2c       	mov	r9, r2
    1878:	9b 18       	sub	r9, r11
    187a:	0d c0       	rjmp	.+26     	; 0x1896 <vfprintf+0x348>
    187c:	b2 14       	cp	r11, r2
    187e:	58 f4       	brcc	.+22     	; 0x1896 <vfprintf+0x348>
    1880:	b6 01       	movw	r22, r12
    1882:	80 e2       	ldi	r24, 0x20	; 32
    1884:	90 e0       	ldi	r25, 0x00	; 0
    1886:	76 d0       	rcall	.+236    	; 0x1974 <fputc>
    1888:	b3 94       	inc	r11
    188a:	f8 cf       	rjmp	.-16     	; 0x187c <vfprintf+0x32e>
    188c:	b2 14       	cp	r11, r2
    188e:	18 f4       	brcc	.+6      	; 0x1896 <vfprintf+0x348>
    1890:	2b 18       	sub	r2, r11
    1892:	02 c0       	rjmp	.+4      	; 0x1898 <vfprintf+0x34a>
    1894:	98 2c       	mov	r9, r8
    1896:	21 2c       	mov	r2, r1
    1898:	a4 fe       	sbrs	r10, 4
    189a:	0f c0       	rjmp	.+30     	; 0x18ba <vfprintf+0x36c>
    189c:	b6 01       	movw	r22, r12
    189e:	80 e3       	ldi	r24, 0x30	; 48
    18a0:	90 e0       	ldi	r25, 0x00	; 0
    18a2:	68 d0       	rcall	.+208    	; 0x1974 <fputc>
    18a4:	a2 fe       	sbrs	r10, 2
    18a6:	16 c0       	rjmp	.+44     	; 0x18d4 <vfprintf+0x386>
    18a8:	a1 fc       	sbrc	r10, 1
    18aa:	03 c0       	rjmp	.+6      	; 0x18b2 <vfprintf+0x364>
    18ac:	88 e7       	ldi	r24, 0x78	; 120
    18ae:	90 e0       	ldi	r25, 0x00	; 0
    18b0:	02 c0       	rjmp	.+4      	; 0x18b6 <vfprintf+0x368>
    18b2:	88 e5       	ldi	r24, 0x58	; 88
    18b4:	90 e0       	ldi	r25, 0x00	; 0
    18b6:	b6 01       	movw	r22, r12
    18b8:	0c c0       	rjmp	.+24     	; 0x18d2 <vfprintf+0x384>
    18ba:	8a 2d       	mov	r24, r10
    18bc:	86 78       	andi	r24, 0x86	; 134
    18be:	51 f0       	breq	.+20     	; 0x18d4 <vfprintf+0x386>
    18c0:	a1 fe       	sbrs	r10, 1
    18c2:	02 c0       	rjmp	.+4      	; 0x18c8 <vfprintf+0x37a>
    18c4:	8b e2       	ldi	r24, 0x2B	; 43
    18c6:	01 c0       	rjmp	.+2      	; 0x18ca <vfprintf+0x37c>
    18c8:	80 e2       	ldi	r24, 0x20	; 32
    18ca:	a7 fc       	sbrc	r10, 7
    18cc:	8d e2       	ldi	r24, 0x2D	; 45
    18ce:	b6 01       	movw	r22, r12
    18d0:	90 e0       	ldi	r25, 0x00	; 0
    18d2:	50 d0       	rcall	.+160    	; 0x1974 <fputc>
    18d4:	89 14       	cp	r8, r9
    18d6:	30 f4       	brcc	.+12     	; 0x18e4 <vfprintf+0x396>
    18d8:	b6 01       	movw	r22, r12
    18da:	80 e3       	ldi	r24, 0x30	; 48
    18dc:	90 e0       	ldi	r25, 0x00	; 0
    18de:	4a d0       	rcall	.+148    	; 0x1974 <fputc>
    18e0:	9a 94       	dec	r9
    18e2:	f8 cf       	rjmp	.-16     	; 0x18d4 <vfprintf+0x386>
    18e4:	8a 94       	dec	r8
    18e6:	f3 01       	movw	r30, r6
    18e8:	e8 0d       	add	r30, r8
    18ea:	f1 1d       	adc	r31, r1
    18ec:	80 81       	ld	r24, Z
    18ee:	b6 01       	movw	r22, r12
    18f0:	90 e0       	ldi	r25, 0x00	; 0
    18f2:	40 d0       	rcall	.+128    	; 0x1974 <fputc>
    18f4:	81 10       	cpse	r8, r1
    18f6:	f6 cf       	rjmp	.-20     	; 0x18e4 <vfprintf+0x396>
    18f8:	22 20       	and	r2, r2
    18fa:	09 f4       	brne	.+2      	; 0x18fe <vfprintf+0x3b0>
    18fc:	4e ce       	rjmp	.-868    	; 0x159a <vfprintf+0x4c>
    18fe:	b6 01       	movw	r22, r12
    1900:	80 e2       	ldi	r24, 0x20	; 32
    1902:	90 e0       	ldi	r25, 0x00	; 0
    1904:	37 d0       	rcall	.+110    	; 0x1974 <fputc>
    1906:	2a 94       	dec	r2
    1908:	f7 cf       	rjmp	.-18     	; 0x18f8 <vfprintf+0x3aa>
    190a:	f6 01       	movw	r30, r12
    190c:	86 81       	ldd	r24, Z+6	; 0x06
    190e:	97 81       	ldd	r25, Z+7	; 0x07
    1910:	02 c0       	rjmp	.+4      	; 0x1916 <vfprintf+0x3c8>
    1912:	8f ef       	ldi	r24, 0xFF	; 255
    1914:	9f ef       	ldi	r25, 0xFF	; 255
    1916:	2b 96       	adiw	r28, 0x0b	; 11
    1918:	0f b6       	in	r0, 0x3f	; 63
    191a:	f8 94       	cli
    191c:	de bf       	out	0x3e, r29	; 62
    191e:	0f be       	out	0x3f, r0	; 63
    1920:	cd bf       	out	0x3d, r28	; 61
    1922:	df 91       	pop	r29
    1924:	cf 91       	pop	r28
    1926:	1f 91       	pop	r17
    1928:	0f 91       	pop	r16
    192a:	ff 90       	pop	r15
    192c:	ef 90       	pop	r14
    192e:	df 90       	pop	r13
    1930:	cf 90       	pop	r12
    1932:	bf 90       	pop	r11
    1934:	af 90       	pop	r10
    1936:	9f 90       	pop	r9
    1938:	8f 90       	pop	r8
    193a:	7f 90       	pop	r7
    193c:	6f 90       	pop	r6
    193e:	5f 90       	pop	r5
    1940:	4f 90       	pop	r4
    1942:	3f 90       	pop	r3
    1944:	2f 90       	pop	r2
    1946:	08 95       	ret

00001948 <strnlen_P>:
    1948:	fc 01       	movw	r30, r24
    194a:	05 90       	lpm	r0, Z+
    194c:	61 50       	subi	r22, 0x01	; 1
    194e:	70 40       	sbci	r23, 0x00	; 0
    1950:	01 10       	cpse	r0, r1
    1952:	d8 f7       	brcc	.-10     	; 0x194a <strnlen_P+0x2>
    1954:	80 95       	com	r24
    1956:	90 95       	com	r25
    1958:	8e 0f       	add	r24, r30
    195a:	9f 1f       	adc	r25, r31
    195c:	08 95       	ret

0000195e <strnlen>:
    195e:	fc 01       	movw	r30, r24
    1960:	61 50       	subi	r22, 0x01	; 1
    1962:	70 40       	sbci	r23, 0x00	; 0
    1964:	01 90       	ld	r0, Z+
    1966:	01 10       	cpse	r0, r1
    1968:	d8 f7       	brcc	.-10     	; 0x1960 <strnlen+0x2>
    196a:	80 95       	com	r24
    196c:	90 95       	com	r25
    196e:	8e 0f       	add	r24, r30
    1970:	9f 1f       	adc	r25, r31
    1972:	08 95       	ret

00001974 <fputc>:
    1974:	0f 93       	push	r16
    1976:	1f 93       	push	r17
    1978:	cf 93       	push	r28
    197a:	df 93       	push	r29
    197c:	fb 01       	movw	r30, r22
    197e:	23 81       	ldd	r18, Z+3	; 0x03
    1980:	21 fd       	sbrc	r18, 1
    1982:	03 c0       	rjmp	.+6      	; 0x198a <fputc+0x16>
    1984:	8f ef       	ldi	r24, 0xFF	; 255
    1986:	9f ef       	ldi	r25, 0xFF	; 255
    1988:	2c c0       	rjmp	.+88     	; 0x19e2 <fputc+0x6e>
    198a:	22 ff       	sbrs	r18, 2
    198c:	16 c0       	rjmp	.+44     	; 0x19ba <fputc+0x46>
    198e:	46 81       	ldd	r20, Z+6	; 0x06
    1990:	57 81       	ldd	r21, Z+7	; 0x07
    1992:	24 81       	ldd	r18, Z+4	; 0x04
    1994:	35 81       	ldd	r19, Z+5	; 0x05
    1996:	42 17       	cp	r20, r18
    1998:	53 07       	cpc	r21, r19
    199a:	44 f4       	brge	.+16     	; 0x19ac <fputc+0x38>
    199c:	a0 81       	ld	r26, Z
    199e:	b1 81       	ldd	r27, Z+1	; 0x01
    19a0:	9d 01       	movw	r18, r26
    19a2:	2f 5f       	subi	r18, 0xFF	; 255
    19a4:	3f 4f       	sbci	r19, 0xFF	; 255
    19a6:	31 83       	std	Z+1, r19	; 0x01
    19a8:	20 83       	st	Z, r18
    19aa:	8c 93       	st	X, r24
    19ac:	26 81       	ldd	r18, Z+6	; 0x06
    19ae:	37 81       	ldd	r19, Z+7	; 0x07
    19b0:	2f 5f       	subi	r18, 0xFF	; 255
    19b2:	3f 4f       	sbci	r19, 0xFF	; 255
    19b4:	37 83       	std	Z+7, r19	; 0x07
    19b6:	26 83       	std	Z+6, r18	; 0x06
    19b8:	14 c0       	rjmp	.+40     	; 0x19e2 <fputc+0x6e>
    19ba:	8b 01       	movw	r16, r22
    19bc:	ec 01       	movw	r28, r24
    19be:	fb 01       	movw	r30, r22
    19c0:	00 84       	ldd	r0, Z+8	; 0x08
    19c2:	f1 85       	ldd	r31, Z+9	; 0x09
    19c4:	e0 2d       	mov	r30, r0
    19c6:	19 95       	eicall
    19c8:	89 2b       	or	r24, r25
    19ca:	e1 f6       	brne	.-72     	; 0x1984 <fputc+0x10>
    19cc:	d8 01       	movw	r26, r16
    19ce:	16 96       	adiw	r26, 0x06	; 6
    19d0:	8d 91       	ld	r24, X+
    19d2:	9c 91       	ld	r25, X
    19d4:	17 97       	sbiw	r26, 0x07	; 7
    19d6:	01 96       	adiw	r24, 0x01	; 1
    19d8:	17 96       	adiw	r26, 0x07	; 7
    19da:	9c 93       	st	X, r25
    19dc:	8e 93       	st	-X, r24
    19de:	16 97       	sbiw	r26, 0x06	; 6
    19e0:	ce 01       	movw	r24, r28
    19e2:	df 91       	pop	r29
    19e4:	cf 91       	pop	r28
    19e6:	1f 91       	pop	r17
    19e8:	0f 91       	pop	r16
    19ea:	08 95       	ret

000019ec <__ultoa_invert>:
    19ec:	fa 01       	movw	r30, r20
    19ee:	aa 27       	eor	r26, r26
    19f0:	28 30       	cpi	r18, 0x08	; 8
    19f2:	51 f1       	breq	.+84     	; 0x1a48 <__ultoa_invert+0x5c>
    19f4:	20 31       	cpi	r18, 0x10	; 16
    19f6:	81 f1       	breq	.+96     	; 0x1a58 <__ultoa_invert+0x6c>
    19f8:	e8 94       	clt
    19fa:	6f 93       	push	r22
    19fc:	6e 7f       	andi	r22, 0xFE	; 254
    19fe:	6e 5f       	subi	r22, 0xFE	; 254
    1a00:	7f 4f       	sbci	r23, 0xFF	; 255
    1a02:	8f 4f       	sbci	r24, 0xFF	; 255
    1a04:	9f 4f       	sbci	r25, 0xFF	; 255
    1a06:	af 4f       	sbci	r26, 0xFF	; 255
    1a08:	b1 e0       	ldi	r27, 0x01	; 1
    1a0a:	3e d0       	rcall	.+124    	; 0x1a88 <__ultoa_invert+0x9c>
    1a0c:	b4 e0       	ldi	r27, 0x04	; 4
    1a0e:	3c d0       	rcall	.+120    	; 0x1a88 <__ultoa_invert+0x9c>
    1a10:	67 0f       	add	r22, r23
    1a12:	78 1f       	adc	r23, r24
    1a14:	89 1f       	adc	r24, r25
    1a16:	9a 1f       	adc	r25, r26
    1a18:	a1 1d       	adc	r26, r1
    1a1a:	68 0f       	add	r22, r24
    1a1c:	79 1f       	adc	r23, r25
    1a1e:	8a 1f       	adc	r24, r26
    1a20:	91 1d       	adc	r25, r1
    1a22:	a1 1d       	adc	r26, r1
    1a24:	6a 0f       	add	r22, r26
    1a26:	71 1d       	adc	r23, r1
    1a28:	81 1d       	adc	r24, r1
    1a2a:	91 1d       	adc	r25, r1
    1a2c:	a1 1d       	adc	r26, r1
    1a2e:	20 d0       	rcall	.+64     	; 0x1a70 <__ultoa_invert+0x84>
    1a30:	09 f4       	brne	.+2      	; 0x1a34 <__ultoa_invert+0x48>
    1a32:	68 94       	set
    1a34:	3f 91       	pop	r19
    1a36:	2a e0       	ldi	r18, 0x0A	; 10
    1a38:	26 9f       	mul	r18, r22
    1a3a:	11 24       	eor	r1, r1
    1a3c:	30 19       	sub	r19, r0
    1a3e:	30 5d       	subi	r19, 0xD0	; 208
    1a40:	31 93       	st	Z+, r19
    1a42:	de f6       	brtc	.-74     	; 0x19fa <__ultoa_invert+0xe>
    1a44:	cf 01       	movw	r24, r30
    1a46:	08 95       	ret
    1a48:	46 2f       	mov	r20, r22
    1a4a:	47 70       	andi	r20, 0x07	; 7
    1a4c:	40 5d       	subi	r20, 0xD0	; 208
    1a4e:	41 93       	st	Z+, r20
    1a50:	b3 e0       	ldi	r27, 0x03	; 3
    1a52:	0f d0       	rcall	.+30     	; 0x1a72 <__ultoa_invert+0x86>
    1a54:	c9 f7       	brne	.-14     	; 0x1a48 <__ultoa_invert+0x5c>
    1a56:	f6 cf       	rjmp	.-20     	; 0x1a44 <__ultoa_invert+0x58>
    1a58:	46 2f       	mov	r20, r22
    1a5a:	4f 70       	andi	r20, 0x0F	; 15
    1a5c:	40 5d       	subi	r20, 0xD0	; 208
    1a5e:	4a 33       	cpi	r20, 0x3A	; 58
    1a60:	18 f0       	brcs	.+6      	; 0x1a68 <__ultoa_invert+0x7c>
    1a62:	49 5d       	subi	r20, 0xD9	; 217
    1a64:	31 fd       	sbrc	r19, 1
    1a66:	40 52       	subi	r20, 0x20	; 32
    1a68:	41 93       	st	Z+, r20
    1a6a:	02 d0       	rcall	.+4      	; 0x1a70 <__ultoa_invert+0x84>
    1a6c:	a9 f7       	brne	.-22     	; 0x1a58 <__ultoa_invert+0x6c>
    1a6e:	ea cf       	rjmp	.-44     	; 0x1a44 <__ultoa_invert+0x58>
    1a70:	b4 e0       	ldi	r27, 0x04	; 4
    1a72:	a6 95       	lsr	r26
    1a74:	97 95       	ror	r25
    1a76:	87 95       	ror	r24
    1a78:	77 95       	ror	r23
    1a7a:	67 95       	ror	r22
    1a7c:	ba 95       	dec	r27
    1a7e:	c9 f7       	brne	.-14     	; 0x1a72 <__ultoa_invert+0x86>
    1a80:	00 97       	sbiw	r24, 0x00	; 0
    1a82:	61 05       	cpc	r22, r1
    1a84:	71 05       	cpc	r23, r1
    1a86:	08 95       	ret
    1a88:	9b 01       	movw	r18, r22
    1a8a:	ac 01       	movw	r20, r24
    1a8c:	0a 2e       	mov	r0, r26
    1a8e:	06 94       	lsr	r0
    1a90:	57 95       	ror	r21
    1a92:	47 95       	ror	r20
    1a94:	37 95       	ror	r19
    1a96:	27 95       	ror	r18
    1a98:	ba 95       	dec	r27
    1a9a:	c9 f7       	brne	.-14     	; 0x1a8e <__ultoa_invert+0xa2>
    1a9c:	62 0f       	add	r22, r18
    1a9e:	73 1f       	adc	r23, r19
    1aa0:	84 1f       	adc	r24, r20
    1aa2:	95 1f       	adc	r25, r21
    1aa4:	a0 1d       	adc	r26, r0
    1aa6:	08 95       	ret

00001aa8 <_exit>:
    1aa8:	f8 94       	cli

00001aaa <__stop_program>:
    1aaa:	ff cf       	rjmp	.-2      	; 0x1aaa <__stop_program>
