
Casio_wrist_watch.elf:     file format elf32-avr

Sections:
Idx Name          Size      VMA       LMA       File off  Algn
  0 .data         00000104  00800200  00002486  0000251a  2**0
                  CONTENTS, ALLOC, LOAD, DATA
  1 .text         00002486  00000000  00000000  00000094  2**1
                  CONTENTS, ALLOC, LOAD, READONLY, CODE
  2 .bss          0000007e  00800304  00800304  0000261e  2**0
                  ALLOC
  3 .comment      0000005c  00000000  00000000  0000261e  2**0
                  CONTENTS, READONLY
  4 .note.gnu.avr.deviceinfo 00000040  00000000  00000000  0000267c  2**2
                  CONTENTS, READONLY
  5 .debug_aranges 000001f8  00000000  00000000  000026bc  2**0
                  CONTENTS, READONLY, DEBUGGING
  6 .debug_info   00002bff  00000000  00000000  000028b4  2**0
                  CONTENTS, READONLY, DEBUGGING
  7 .debug_abbrev 00000f67  00000000  00000000  000054b3  2**0
                  CONTENTS, READONLY, DEBUGGING
  8 .debug_line   00001e17  00000000  00000000  0000641a  2**0
                  CONTENTS, READONLY, DEBUGGING
  9 .debug_frame  000006b4  00000000  00000000  00008234  2**2
                  CONTENTS, READONLY, DEBUGGING
 10 .debug_str    00000fa3  00000000  00000000  000088e8  2**0
                  CONTENTS, READONLY, DEBUGGING
 11 .debug_loc    00002bae  00000000  00000000  0000988b  2**0
                  CONTENTS, READONLY, DEBUGGING
 12 .debug_ranges 00000208  00000000  00000000  0000c439  2**0
                  CONTENTS, READONLY, DEBUGGING

Disassembly of section .text:

00000000 <__vectors>:
       0:	78 c0       	rjmp	.+240    	; 0xf2 <__ctors_end>
       2:	00 00       	nop
       4:	96 c0       	rjmp	.+300    	; 0x132 <__bad_interrupt>
       6:	00 00       	nop
       8:	94 c0       	rjmp	.+296    	; 0x132 <__bad_interrupt>
       a:	00 00       	nop
       c:	92 c0       	rjmp	.+292    	; 0x132 <__bad_interrupt>
       e:	00 00       	nop
      10:	90 c0       	rjmp	.+288    	; 0x132 <__bad_interrupt>
      12:	00 00       	nop
      14:	8e c0       	rjmp	.+284    	; 0x132 <__bad_interrupt>
      16:	00 00       	nop
      18:	8c c0       	rjmp	.+280    	; 0x132 <__bad_interrupt>
      1a:	00 00       	nop
      1c:	8a c0       	rjmp	.+276    	; 0x132 <__bad_interrupt>
      1e:	00 00       	nop
      20:	88 c0       	rjmp	.+272    	; 0x132 <__bad_interrupt>
      22:	00 00       	nop
      24:	86 c0       	rjmp	.+268    	; 0x132 <__bad_interrupt>
      26:	00 00       	nop
      28:	84 c0       	rjmp	.+264    	; 0x132 <__bad_interrupt>
      2a:	00 00       	nop
      2c:	82 c0       	rjmp	.+260    	; 0x132 <__bad_interrupt>
      2e:	00 00       	nop
      30:	80 c0       	rjmp	.+256    	; 0x132 <__bad_interrupt>
      32:	00 00       	nop
      34:	7e c0       	rjmp	.+252    	; 0x132 <__bad_interrupt>
      36:	00 00       	nop
      38:	7c c0       	rjmp	.+248    	; 0x132 <__bad_interrupt>
      3a:	00 00       	nop
      3c:	7a c0       	rjmp	.+244    	; 0x132 <__bad_interrupt>
      3e:	00 00       	nop
      40:	78 c0       	rjmp	.+240    	; 0x132 <__bad_interrupt>
      42:	00 00       	nop
      44:	76 c0       	rjmp	.+236    	; 0x132 <__bad_interrupt>
      46:	00 00       	nop
      48:	74 c0       	rjmp	.+232    	; 0x132 <__bad_interrupt>
      4a:	00 00       	nop
      4c:	72 c0       	rjmp	.+228    	; 0x132 <__bad_interrupt>
      4e:	00 00       	nop
      50:	70 c0       	rjmp	.+224    	; 0x132 <__bad_interrupt>
      52:	00 00       	nop
      54:	6e c0       	rjmp	.+220    	; 0x132 <__bad_interrupt>
      56:	00 00       	nop
      58:	6c c0       	rjmp	.+216    	; 0x132 <__bad_interrupt>
      5a:	00 00       	nop
      5c:	0c 94 89 0e 	jmp	0x1d12	; 0x1d12 <__vector_23>
      60:	68 c0       	rjmp	.+208    	; 0x132 <__bad_interrupt>
      62:	00 00       	nop
      64:	66 c0       	rjmp	.+204    	; 0x132 <__bad_interrupt>
      66:	00 00       	nop
      68:	64 c0       	rjmp	.+200    	; 0x132 <__bad_interrupt>
      6a:	00 00       	nop
      6c:	62 c0       	rjmp	.+196    	; 0x132 <__bad_interrupt>
      6e:	00 00       	nop
      70:	60 c0       	rjmp	.+192    	; 0x132 <__bad_interrupt>
      72:	00 00       	nop
      74:	5e c0       	rjmp	.+188    	; 0x132 <__bad_interrupt>
      76:	00 00       	nop
      78:	5c c0       	rjmp	.+184    	; 0x132 <__bad_interrupt>
      7a:	00 00       	nop
      7c:	5a c0       	rjmp	.+180    	; 0x132 <__bad_interrupt>
      7e:	00 00       	nop
      80:	58 c0       	rjmp	.+176    	; 0x132 <__bad_interrupt>
      82:	00 00       	nop
      84:	56 c0       	rjmp	.+172    	; 0x132 <__bad_interrupt>
      86:	00 00       	nop
      88:	54 c0       	rjmp	.+168    	; 0x132 <__bad_interrupt>
      8a:	00 00       	nop
      8c:	52 c0       	rjmp	.+164    	; 0x132 <__bad_interrupt>
      8e:	00 00       	nop
      90:	50 c0       	rjmp	.+160    	; 0x132 <__bad_interrupt>
      92:	00 00       	nop
      94:	4e c0       	rjmp	.+156    	; 0x132 <__bad_interrupt>
      96:	00 00       	nop
      98:	4c c0       	rjmp	.+152    	; 0x132 <__bad_interrupt>
      9a:	00 00       	nop
      9c:	4a c0       	rjmp	.+148    	; 0x132 <__bad_interrupt>
      9e:	00 00       	nop
      a0:	48 c0       	rjmp	.+144    	; 0x132 <__bad_interrupt>
      a2:	00 00       	nop
      a4:	46 c0       	rjmp	.+140    	; 0x132 <__bad_interrupt>
      a6:	00 00       	nop
      a8:	44 c0       	rjmp	.+136    	; 0x132 <__bad_interrupt>
      aa:	00 00       	nop
      ac:	42 c0       	rjmp	.+132    	; 0x132 <__bad_interrupt>
      ae:	00 00       	nop
      b0:	40 c0       	rjmp	.+128    	; 0x132 <__bad_interrupt>
      b2:	00 00       	nop
      b4:	3e c0       	rjmp	.+124    	; 0x132 <__bad_interrupt>
      b6:	00 00       	nop
      b8:	3c c0       	rjmp	.+120    	; 0x132 <__bad_interrupt>
      ba:	00 00       	nop
      bc:	3a c0       	rjmp	.+116    	; 0x132 <__bad_interrupt>
      be:	00 00       	nop
      c0:	38 c0       	rjmp	.+112    	; 0x132 <__bad_interrupt>
      c2:	00 00       	nop
      c4:	36 c0       	rjmp	.+108    	; 0x132 <__bad_interrupt>
      c6:	00 00       	nop
      c8:	34 c0       	rjmp	.+104    	; 0x132 <__bad_interrupt>
      ca:	00 00       	nop
      cc:	32 c0       	rjmp	.+100    	; 0x132 <__bad_interrupt>
      ce:	00 00       	nop
      d0:	30 c0       	rjmp	.+96     	; 0x132 <__bad_interrupt>
      d2:	00 00       	nop
      d4:	2e c0       	rjmp	.+92     	; 0x132 <__bad_interrupt>
      d6:	00 00       	nop
      d8:	2c c0       	rjmp	.+88     	; 0x132 <__bad_interrupt>
      da:	00 00       	nop
      dc:	2a c0       	rjmp	.+84     	; 0x132 <__bad_interrupt>
      de:	00 00       	nop
      e0:	28 c0       	rjmp	.+80     	; 0x132 <__bad_interrupt>
      e2:	00 00       	nop
      e4:	ef 04       	cpc	r14, r15
      e6:	10 05       	cpc	r17, r0
      e8:	a1 05       	cpc	r26, r1
      ea:	ad 05       	cpc	r26, r13
      ec:	b2 05       	cpc	r27, r2
      ee:	30 06       	cpc	r3, r16
      f0:	57 06       	cpc	r5, r23

000000f2 <__ctors_end>:
      f2:	11 24       	eor	r1, r1
      f4:	1f be       	out	0x3f, r1	; 63
      f6:	cf ef       	ldi	r28, 0xFF	; 255
      f8:	d1 e2       	ldi	r29, 0x21	; 33
      fa:	de bf       	out	0x3e, r29	; 62
      fc:	cd bf       	out	0x3d, r28	; 61
      fe:	00 e0       	ldi	r16, 0x00	; 0
     100:	0c bf       	out	0x3c, r16	; 60

00000102 <__do_copy_data>:
     102:	13 e0       	ldi	r17, 0x03	; 3
     104:	a0 e0       	ldi	r26, 0x00	; 0
     106:	b2 e0       	ldi	r27, 0x02	; 2
     108:	e6 e8       	ldi	r30, 0x86	; 134
     10a:	f4 e2       	ldi	r31, 0x24	; 36
     10c:	00 e0       	ldi	r16, 0x00	; 0
     10e:	0b bf       	out	0x3b, r16	; 59
     110:	02 c0       	rjmp	.+4      	; 0x116 <__do_copy_data+0x14>
     112:	07 90       	elpm	r0, Z+
     114:	0d 92       	st	X+, r0
     116:	a4 30       	cpi	r26, 0x04	; 4
     118:	b1 07       	cpc	r27, r17
     11a:	d9 f7       	brne	.-10     	; 0x112 <__do_copy_data+0x10>

0000011c <__do_clear_bss>:
     11c:	23 e0       	ldi	r18, 0x03	; 3
     11e:	a4 e0       	ldi	r26, 0x04	; 4
     120:	b3 e0       	ldi	r27, 0x03	; 3
     122:	01 c0       	rjmp	.+2      	; 0x126 <.do_clear_bss_start>

00000124 <.do_clear_bss_loop>:
     124:	1d 92       	st	X+, r1

00000126 <.do_clear_bss_start>:
     126:	a2 38       	cpi	r26, 0x82	; 130
     128:	b2 07       	cpc	r27, r18
     12a:	e1 f7       	brne	.-8      	; 0x124 <.do_clear_bss_loop>
     12c:	03 d0       	rcall	.+6      	; 0x134 <main>
     12e:	0c 94 41 12 	jmp	0x2482	; 0x2482 <_exit>

00000132 <__bad_interrupt>:
     132:	66 cf       	rjmp	.-308    	; 0x0 <__vectors>

00000134 <main>:
 */ 

#include "ucBoardDriver.h"


int main(void){	
     134:	cf 93       	push	r28
     136:	df 93       	push	r29
     138:	cd b7       	in	r28, 0x3d	; 61
     13a:	de b7       	in	r29, 0x3e	; 62
     13c:	c0 56       	subi	r28, 0x60	; 96
     13e:	d1 09       	sbc	r29, r1
     140:	0f b6       	in	r0, 0x3f	; 63
     142:	f8 94       	cli
     144:	de bf       	out	0x3e, r29	; 62
     146:	0f be       	out	0x3f, r0	; 63
     148:	cd bf       	out	0x3d, r28	; 61
	initBoard(0);
     14a:	80 e0       	ldi	r24, 0x00	; 0
     14c:	0e 94 23 0d 	call	0x1a46	; 0x1a46 <initBoard>
		uint8_t date_day = 1;
		uint8_t month = 1;
	//entry
		uint8_t entry_flag = 0;
	//morgen oder nachmittag
		char *  AM_PM[] = {"AM","PM","24","ST","AL   ","SU"};
     150:	8c e0       	ldi	r24, 0x0C	; 12
     152:	e0 e0       	ldi	r30, 0x00	; 0
     154:	f2 e0       	ldi	r31, 0x02	; 2
     156:	de 01       	movw	r26, r28
     158:	11 96       	adiw	r26, 0x01	; 1
     15a:	01 90       	ld	r0, Z+
     15c:	0d 92       	st	X+, r0
     15e:	8a 95       	dec	r24
     160:	e1 f7       	brne	.-8      	; 0x15a <main+0x26>
		uint8_t daytime = 0;
		uint8_t daytime_flag = 0;
	//weekdays
		char * week_days[] = {"MO","TU","WE","TH","FR","SA","SO"};
     162:	8e e0       	ldi	r24, 0x0E	; 14
     164:	ec e0       	ldi	r30, 0x0C	; 12
     166:	f2 e0       	ldi	r31, 0x02	; 2
     168:	de 01       	movw	r26, r28
     16a:	1d 96       	adiw	r26, 0x0d	; 13
     16c:	01 90       	ld	r0, Z+
     16e:	0d 92       	st	X+, r0
     170:	8a 95       	dec	r24
     172:	e1 f7       	brne	.-8      	; 0x16c <main+0x38>
		uint8_t zwischenspeicher_datum = 0;
		uint8_t zwischenspeicher_wochentag = 0;
	//clock symbol anziege wecker
		uint8_t clock_symbol = 1;
		uint8_t stripes_symbol = 2;
		const uint8_t clock_symbol_bitarray[] = {	0b00100,
     174:	88 e0       	ldi	r24, 0x08	; 8
     176:	ea e1       	ldi	r30, 0x1A	; 26
     178:	f2 e0       	ldi	r31, 0x02	; 2
     17a:	de 01       	movw	r26, r28
     17c:	5b 96       	adiw	r26, 0x1b	; 27
     17e:	01 90       	ld	r0, Z+
     180:	0d 92       	st	X+, r0
     182:	8a 95       	dec	r24
     184:	e1 f7       	brne	.-8      	; 0x17e <main+0x4a>
																			0b01110,
																			0b11111,
																			0b11111,
																			0b00100,
																			0b00000};
		const uint8_t stripes_symbol_bitarray[] = {	0b00000,
     186:	88 e0       	ldi	r24, 0x08	; 8
     188:	e2 e2       	ldi	r30, 0x22	; 34
     18a:	f2 e0       	ldi	r31, 0x02	; 2
     18c:	de 01       	movw	r26, r28
     18e:	93 96       	adiw	r26, 0x23	; 35
     190:	01 90       	ld	r0, Z+
     192:	0d 92       	st	X+, r0
     194:	8a 95       	dec	r24
     196:	e1 f7       	brne	.-8      	; 0x190 <main+0x5c>
																			0b10101,
																			0b10101,
																			0b10101,
																			0b10101,
																			0b00000};
		lcdCreateCustomChar(clock_symbol,clock_symbol_bitarray);
     198:	be 01       	movw	r22, r28
     19a:	65 5e       	subi	r22, 0xE5	; 229
     19c:	7f 4f       	sbci	r23, 0xFF	; 255
     19e:	81 e0       	ldi	r24, 0x01	; 1
     1a0:	0e 94 c3 0b 	call	0x1786	; 0x1786 <lcdCreateCustomChar>
		lcdCreateCustomChar(stripes_symbol,stripes_symbol_bitarray);
     1a4:	be 01       	movw	r22, r28
     1a6:	6d 5d       	subi	r22, 0xDD	; 221
     1a8:	7f 4f       	sbci	r23, 0xFF	; 255
     1aa:	82 e0       	ldi	r24, 0x02	; 2
     1ac:	0e 94 c3 0b 	call	0x1786	; 0x1786 <lcdCreateCustomChar>
		uint8_t alarm_flag = 0;
		uint64_t timer_schutz = 60500;
		uint64_t inZeit_ms = 0;
	//blinken
		uint8_t blink_timer = 0; 
		uint8_t blink_flag = 0;
     1b0:	28 96       	adiw	r28, 0x08	; 8
     1b2:	1f ae       	std	Y+63, r1	; 0x3f
     1b4:	28 97       	sbiw	r28, 0x08	; 8
	//wecker
		uint8_t wecker_modes = 0;
		uint8_t wecker_stunden = 0;
		uint8_t wecker_minuten = 0;
		uint8_t alarm_flag = 0;
		uint64_t timer_schutz = 60500;
     1b6:	24 e5       	ldi	r18, 0x54	; 84
     1b8:	6a 96       	adiw	r28, 0x1a	; 26
     1ba:	2f af       	std	Y+63, r18	; 0x3f
     1bc:	6a 97       	sbiw	r28, 0x1a	; 26
     1be:	3c ee       	ldi	r19, 0xEC	; 236
     1c0:	6b 96       	adiw	r28, 0x1b	; 27
     1c2:	3f af       	std	Y+63, r19	; 0x3f
     1c4:	6b 97       	sbiw	r28, 0x1b	; 27
     1c6:	6c 96       	adiw	r28, 0x1c	; 28
     1c8:	1f ae       	std	Y+63, r1	; 0x3f
     1ca:	6c 97       	sbiw	r28, 0x1c	; 28
     1cc:	6d 96       	adiw	r28, 0x1d	; 29
     1ce:	1f ae       	std	Y+63, r1	; 0x3f
     1d0:	6d 97       	sbiw	r28, 0x1d	; 29
     1d2:	6e 96       	adiw	r28, 0x1e	; 30
     1d4:	1f ae       	std	Y+63, r1	; 0x3f
     1d6:	6e 97       	sbiw	r28, 0x1e	; 30
     1d8:	6f 96       	adiw	r28, 0x1f	; 31
     1da:	1f ae       	std	Y+63, r1	; 0x3f
     1dc:	6f 97       	sbiw	r28, 0x1f	; 31
     1de:	a0 96       	adiw	r28, 0x20	; 32
     1e0:	1f ae       	std	Y+63, r1	; 0x3f
     1e2:	a0 97       	sbiw	r28, 0x20	; 32
     1e4:	a1 96       	adiw	r28, 0x21	; 33
     1e6:	1f ae       	std	Y+63, r1	; 0x3f
     1e8:	a1 97       	sbiw	r28, 0x21	; 33
		uint8_t symbol_mode = 0;
	//wecker
		uint8_t wecker_modes = 0;
		uint8_t wecker_stunden = 0;
		uint8_t wecker_minuten = 0;
		uint8_t alarm_flag = 0;
     1ea:	27 96       	adiw	r28, 0x07	; 7
     1ec:	1f ae       	std	Y+63, r1	; 0x3f
     1ee:	27 97       	sbiw	r28, 0x07	; 7
		lcdCreateCustomChar(stripes_symbol,stripes_symbol_bitarray);
		uint8_t symbol_mode = 0;
	//wecker
		uint8_t wecker_modes = 0;
		uint8_t wecker_stunden = 0;
		uint8_t wecker_minuten = 0;
     1f0:	2e 96       	adiw	r28, 0x0e	; 14
     1f2:	1f ae       	std	Y+63, r1	; 0x3f
     1f4:	2e 97       	sbiw	r28, 0x0e	; 14
		lcdCreateCustomChar(clock_symbol,clock_symbol_bitarray);
		lcdCreateCustomChar(stripes_symbol,stripes_symbol_bitarray);
		uint8_t symbol_mode = 0;
	//wecker
		uint8_t wecker_modes = 0;
		uint8_t wecker_stunden = 0;
     1f6:	2c 96       	adiw	r28, 0x0c	; 12
     1f8:	1f ae       	std	Y+63, r1	; 0x3f
     1fa:	2c 97       	sbiw	r28, 0x0c	; 12
																			0b00000};
		lcdCreateCustomChar(clock_symbol,clock_symbol_bitarray);
		lcdCreateCustomChar(stripes_symbol,stripes_symbol_bitarray);
		uint8_t symbol_mode = 0;
	//wecker
		uint8_t wecker_modes = 0;
     1fc:	2d 96       	adiw	r28, 0x0d	; 13
     1fe:	1f ae       	std	Y+63, r1	; 0x3f
     200:	2d 97       	sbiw	r28, 0x0d	; 13
																			0b10101,
																			0b10101,
																			0b00000};
		lcdCreateCustomChar(clock_symbol,clock_symbol_bitarray);
		lcdCreateCustomChar(stripes_symbol,stripes_symbol_bitarray);
		uint8_t symbol_mode = 0;
     202:	1c a6       	std	Y+44, r1	; 0x2c
		uint8_t zwischenspeicher_sekunden = 0;
		uint8_t zwischenspeicher_minuten = 0;
		uint8_t zwischenspeicher_stunden = 0;
		uint8_t zwischenspeicher_monate = 1;
		uint8_t zwischenspeicher_datum = 0;
		uint8_t zwischenspeicher_wochentag = 0;
     204:	68 96       	adiw	r28, 0x18	; 24
     206:	1f ae       	std	Y+63, r1	; 0x3f
     208:	68 97       	sbiw	r28, 0x18	; 24
		uint8_t kalender_modes = 0;
		uint8_t zwischenspeicher_sekunden = 0;
		uint8_t zwischenspeicher_minuten = 0;
		uint8_t zwischenspeicher_stunden = 0;
		uint8_t zwischenspeicher_monate = 1;
		uint8_t zwischenspeicher_datum = 0;
     20a:	67 96       	adiw	r28, 0x17	; 23
     20c:	1f ae       	std	Y+63, r1	; 0x3f
     20e:	67 97       	sbiw	r28, 0x17	; 23
	//kalender
		uint8_t kalender_modes = 0;
		uint8_t zwischenspeicher_sekunden = 0;
		uint8_t zwischenspeicher_minuten = 0;
		uint8_t zwischenspeicher_stunden = 0;
		uint8_t zwischenspeicher_monate = 1;
     210:	51 e0       	ldi	r21, 0x01	; 1
     212:	66 96       	adiw	r28, 0x16	; 22
     214:	5f af       	std	Y+63, r21	; 0x3f
     216:	66 97       	sbiw	r28, 0x16	; 22
		uint8_t stop_watch_mini_modes = 0;
	//kalender
		uint8_t kalender_modes = 0;
		uint8_t zwischenspeicher_sekunden = 0;
		uint8_t zwischenspeicher_minuten = 0;
		uint8_t zwischenspeicher_stunden = 0;
     218:	63 96       	adiw	r28, 0x13	; 19
     21a:	1f ae       	std	Y+63, r1	; 0x3f
     21c:	63 97       	sbiw	r28, 0x13	; 19
		uint8_t stopwatch_minutes = 0;
		uint8_t stop_watch_mini_modes = 0;
	//kalender
		uint8_t kalender_modes = 0;
		uint8_t zwischenspeicher_sekunden = 0;
		uint8_t zwischenspeicher_minuten = 0;
     21e:	65 96       	adiw	r28, 0x15	; 21
     220:	1f ae       	std	Y+63, r1	; 0x3f
     222:	65 97       	sbiw	r28, 0x15	; 21
		uint8_t stopwatch_seconds = 0;
		uint8_t stopwatch_minutes = 0;
		uint8_t stop_watch_mini_modes = 0;
	//kalender
		uint8_t kalender_modes = 0;
		uint8_t zwischenspeicher_sekunden = 0;
     224:	64 96       	adiw	r28, 0x14	; 20
     226:	1f ae       	std	Y+63, r1	; 0x3f
     228:	64 97       	sbiw	r28, 0x14	; 20
		uint8_t stopwatch_hundredths = 0;
		uint8_t stopwatch_seconds = 0;
		uint8_t stopwatch_minutes = 0;
		uint8_t stop_watch_mini_modes = 0;
	//kalender
		uint8_t kalender_modes = 0;
     22a:	2a 96       	adiw	r28, 0x0a	; 10
     22c:	1f ae       	std	Y+63, r1	; 0x3f
     22e:	2a 97       	sbiw	r28, 0x0a	; 10
		uint8_t clock_light = 0;
	//stopwatch
		uint8_t stopwatch_hundredths = 0;
		uint8_t stopwatch_seconds = 0;
		uint8_t stopwatch_minutes = 0;
		uint8_t stop_watch_mini_modes = 0;
     230:	2f 96       	adiw	r28, 0x0f	; 15
     232:	1f ae       	std	Y+63, r1	; 0x3f
     234:	2f 97       	sbiw	r28, 0x0f	; 15
	//clock light
		uint8_t clock_light = 0;
	//stopwatch
		uint8_t stopwatch_hundredths = 0;
		uint8_t stopwatch_seconds = 0;
		uint8_t stopwatch_minutes = 0;
     236:	69 96       	adiw	r28, 0x19	; 25
     238:	1f ae       	std	Y+63, r1	; 0x3f
     23a:	69 97       	sbiw	r28, 0x19	; 25
		uint8_t button_c = 0;
	//clock light
		uint8_t clock_light = 0;
	//stopwatch
		uint8_t stopwatch_hundredths = 0;
		uint8_t stopwatch_seconds = 0;
     23c:	62 96       	adiw	r28, 0x12	; 18
     23e:	1f ae       	std	Y+63, r1	; 0x3f
     240:	62 97       	sbiw	r28, 0x12	; 18
		uint8_t button_L = 0;
		uint8_t button_c = 0;
	//clock light
		uint8_t clock_light = 0;
	//stopwatch
		uint8_t stopwatch_hundredths = 0;
     242:	61 96       	adiw	r28, 0x11	; 17
     244:	1f ae       	std	Y+63, r1	; 0x3f
     246:	61 97       	sbiw	r28, 0x11	; 17
		uint8_t buttons_pos_flanke = 0;
		uint8_t button_A = 0;
		uint8_t button_L = 0;
		uint8_t button_c = 0;
	//clock light
		uint8_t clock_light = 0;
     248:	41 2c       	mov	r4, r1
	//weekdays
		char * week_days[] = {"MO","TU","WE","TH","FR","SA","SO"};
		uint8_t day_of_the_week = 0;
	//buttons
		uint8_t buttons = 0;
		uint8_t buttons_neu = 0;
     24a:	80 e0       	ldi	r24, 0x00	; 0
		char *  AM_PM[] = {"AM","PM","24","ST","AL   ","SU"};
		uint8_t daytime = 0;
		uint8_t daytime_flag = 0;
	//weekdays
		char * week_days[] = {"MO","TU","WE","TH","FR","SA","SO"};
		uint8_t day_of_the_week = 0;
     24c:	2b 96       	adiw	r28, 0x0b	; 11
     24e:	1f ae       	std	Y+63, r1	; 0x3f
     250:	2b 97       	sbiw	r28, 0x0b	; 11
	//entry
		uint8_t entry_flag = 0;
	//morgen oder nachmittag
		char *  AM_PM[] = {"AM","PM","24","ST","AL   ","SU"};
		uint8_t daytime = 0;
		uint8_t daytime_flag = 0;
     252:	1d ae       	std	Y+61, r1	; 0x3d
		uint8_t month = 1;
	//entry
		uint8_t entry_flag = 0;
	//morgen oder nachmittag
		char *  AM_PM[] = {"AM","PM","24","ST","AL   ","SU"};
		uint8_t daytime = 0;
     254:	29 96       	adiw	r28, 0x09	; 9
     256:	1f ae       	std	Y+63, r1	; 0x3f
     258:	29 97       	sbiw	r28, 0x09	; 9
		uint8_t milisecond = 0;
	//dates
		uint8_t date_day = 1;
		uint8_t month = 1;
	//entry
		uint8_t entry_flag = 0;
     25a:	60 96       	adiw	r28, 0x10	; 16
     25c:	1f ae       	std	Y+63, r1	; 0x3f
     25e:	60 97       	sbiw	r28, 0x10	; 16
		uint8_t minutes = 0;
		uint8_t seconds = 0;
		uint8_t milisecond = 0;
	//dates
		uint8_t date_day = 1;
		uint8_t month = 1;
     260:	61 e0       	ldi	r22, 0x01	; 1
     262:	6b a7       	std	Y+43, r22	; 0x2b
		uint8_t hour_12h = 0;
		uint8_t minutes = 0;
		uint8_t seconds = 0;
		uint8_t milisecond = 0;
	//dates
		uint8_t date_day = 1;
     264:	91 e0       	ldi	r25, 0x01	; 1
     266:	99 ab       	std	Y+49, r25	; 0x31
		uint8_t twelve_twentyfour = 0;
	//time anzeige
		uint8_t hour_24h = 0;
		uint8_t hour_12h = 0;
		uint8_t minutes = 0;
		uint8_t seconds = 0;
     268:	18 aa       	std	Y+48, r1	; 0x30
		uint8_t clock_modes = 0;
		uint8_t twelve_twentyfour = 0;
	//time anzeige
		uint8_t hour_24h = 0;
		uint8_t hour_12h = 0;
		uint8_t minutes = 0;
     26a:	1d a6       	std	Y+45, r1	; 0x2d
		uint64_t clock = 0;
		uint8_t clock_modes = 0;
		uint8_t twelve_twentyfour = 0;
	//time anzeige
		uint8_t hour_24h = 0;
		uint8_t hour_12h = 0;
     26c:	1f a6       	std	Y+47, r1	; 0x2f
	//uhr
		uint64_t clock = 0;
		uint8_t clock_modes = 0;
		uint8_t twelve_twentyfour = 0;
	//time anzeige
		uint8_t hour_24h = 0;
     26e:	1e a6       	std	Y+46, r1	; 0x2e
	initBoard(0);
	
	//uhr
		uint64_t clock = 0;
		uint8_t clock_modes = 0;
		uint8_t twelve_twentyfour = 0;
     270:	1a ae       	std	Y+58, r1	; 0x3a
int main(void){	
	initBoard(0);
	
	//uhr
		uint64_t clock = 0;
		uint8_t clock_modes = 0;
     272:	51 2c       	mov	r5, r1

int main(void){	
	initBoard(0);
	
	//uhr
		uint64_t clock = 0;
     274:	1e ae       	std	Y+62, r1	; 0x3e
     276:	1f ae       	std	Y+63, r1	; 0x3f
     278:	21 96       	adiw	r28, 0x01	; 1
     27a:	1f ae       	std	Y+63, r1	; 0x3f
     27c:	21 97       	sbiw	r28, 0x01	; 1
     27e:	22 96       	adiw	r28, 0x02	; 2
     280:	1f ae       	std	Y+63, r1	; 0x3f
     282:	22 97       	sbiw	r28, 0x02	; 2
     284:	23 96       	adiw	r28, 0x03	; 3
     286:	1f ae       	std	Y+63, r1	; 0x3f
     288:	23 97       	sbiw	r28, 0x03	; 3
     28a:	24 96       	adiw	r28, 0x04	; 4
     28c:	1f ae       	std	Y+63, r1	; 0x3f
     28e:	24 97       	sbiw	r28, 0x04	; 4
     290:	25 96       	adiw	r28, 0x05	; 5
     292:	1f ae       	std	Y+63, r1	; 0x3f
     294:	25 97       	sbiw	r28, 0x05	; 5
     296:	26 96       	adiw	r28, 0x06	; 6
     298:	1f ae       	std	Y+63, r1	; 0x3f
     29a:	26 97       	sbiw	r28, 0x06	; 6
     29c:	85 2c       	mov	r8, r5
     29e:	74 2c       	mov	r7, r4
     2a0:	01 c0       	rjmp	.+2      	; 0x2a4 <main+0x170>
     2a2:	86 2d       	mov	r24, r6
		uint8_t blink_timer = 0; 
		uint8_t blink_flag = 0;
		
    while (1) {
//Eingabe
	buttons = PINL;
     2a4:	60 90 09 01 	lds	r6, 0x0109	; 0x800109 <__TEXT_REGION_LENGTH__+0x7c0109>
	buttons_alt = buttons_neu;
	buttons_neu = buttons;
	buttons_flanke = buttons_neu ^ buttons_alt;
     2a8:	86 25       	eor	r24, r6
	buttons_pos_flanke = buttons_flanke & buttons_neu;
     2aa:	86 21       	and	r24, r6
	button_A = (buttons_pos_flanke & 0b10000000)>0;
     2ac:	98 2f       	mov	r25, r24
     2ae:	90 78       	andi	r25, 0x80	; 128
     2b0:	49 2e       	mov	r4, r25
     2b2:	51 2c       	mov	r5, r1
	button_L = (buttons_pos_flanke & 0b0001)>0;
     2b4:	80 fb       	bst	r24, 0
     2b6:	22 24       	eor	r2, r2
     2b8:	20 f8       	bld	r2, 0
     2ba:	31 2c       	mov	r3, r1
	button_c = (buttons_pos_flanke & 0b0010)>0;
     2bc:	82 70       	andi	r24, 0x02	; 2
     2be:	e8 2f       	mov	r30, r24
     2c0:	f0 e0       	ldi	r31, 0x00	; 0
     2c2:	fc af       	std	Y+60, r31	; 0x3c
     2c4:	eb af       	std	Y+59, r30	; 0x3b
//Verarbeitung
	//umrechnung
		//umrechnung zeiten
		if((getSystemTimeMs()-clock) >=1000){
     2c6:	0e 94 92 0a 	call	0x1524	; 0x1524 <getSystemTimeMs>
     2ca:	ae ac       	ldd	r10, Y+62	; 0x3e
     2cc:	bf ac       	ldd	r11, Y+63	; 0x3f
     2ce:	21 96       	adiw	r28, 0x01	; 1
     2d0:	cf ac       	ldd	r12, Y+63	; 0x3f
     2d2:	21 97       	sbiw	r28, 0x01	; 1
     2d4:	22 96       	adiw	r28, 0x02	; 2
     2d6:	df ac       	ldd	r13, Y+63	; 0x3f
     2d8:	22 97       	sbiw	r28, 0x02	; 2
     2da:	23 96       	adiw	r28, 0x03	; 3
     2dc:	ef ac       	ldd	r14, Y+63	; 0x3f
     2de:	23 97       	sbiw	r28, 0x03	; 3
     2e0:	24 96       	adiw	r28, 0x04	; 4
     2e2:	ff ac       	ldd	r15, Y+63	; 0x3f
     2e4:	24 97       	sbiw	r28, 0x04	; 4
     2e6:	25 96       	adiw	r28, 0x05	; 5
     2e8:	0f ad       	ldd	r16, Y+63	; 0x3f
     2ea:	25 97       	sbiw	r28, 0x05	; 5
     2ec:	26 96       	adiw	r28, 0x06	; 6
     2ee:	1f ad       	ldd	r17, Y+63	; 0x3f
     2f0:	26 97       	sbiw	r28, 0x06	; 6
     2f2:	0e 94 47 0f 	call	0x1e8e	; 0x1e8e <__subdi3>
     2f6:	27 3e       	cpi	r18, 0xE7	; 231
     2f8:	33 40       	sbci	r19, 0x03	; 3
     2fa:	41 05       	cpc	r20, r1
     2fc:	51 05       	cpc	r21, r1
     2fe:	61 05       	cpc	r22, r1
     300:	71 05       	cpc	r23, r1
     302:	81 05       	cpc	r24, r1
     304:	91 05       	cpc	r25, r1
     306:	d1 f0       	breq	.+52     	; 0x33c <main+0x208>
     308:	c8 f0       	brcs	.+50     	; 0x33c <main+0x208>
			seconds += 1;
     30a:	28 a9       	ldd	r18, Y+48	; 0x30
     30c:	2f 5f       	subi	r18, 0xFF	; 255
     30e:	28 ab       	std	Y+48, r18	; 0x30
			clock = getSystemTimeMs();
     310:	0e 94 92 0a 	call	0x1524	; 0x1524 <getSystemTimeMs>
     314:	2e af       	std	Y+62, r18	; 0x3e
     316:	3f af       	std	Y+63, r19	; 0x3f
     318:	21 96       	adiw	r28, 0x01	; 1
     31a:	4f af       	std	Y+63, r20	; 0x3f
     31c:	21 97       	sbiw	r28, 0x01	; 1
     31e:	22 96       	adiw	r28, 0x02	; 2
     320:	5f af       	std	Y+63, r21	; 0x3f
     322:	22 97       	sbiw	r28, 0x02	; 2
     324:	23 96       	adiw	r28, 0x03	; 3
     326:	6f af       	std	Y+63, r22	; 0x3f
     328:	23 97       	sbiw	r28, 0x03	; 3
     32a:	24 96       	adiw	r28, 0x04	; 4
     32c:	7f af       	std	Y+63, r23	; 0x3f
     32e:	24 97       	sbiw	r28, 0x04	; 4
     330:	25 96       	adiw	r28, 0x05	; 5
     332:	8f af       	std	Y+63, r24	; 0x3f
     334:	25 97       	sbiw	r28, 0x05	; 5
     336:	26 96       	adiw	r28, 0x06	; 6
     338:	9f af       	std	Y+63, r25	; 0x3f
     33a:	26 97       	sbiw	r28, 0x06	; 6
		}
		if(minutes > 59){
     33c:	3d a5       	ldd	r19, Y+45	; 0x2d
     33e:	3c 33       	cpi	r19, 0x3C	; 60
     340:	38 f0       	brcs	.+14     	; 0x350 <main+0x21c>
			minutes = 0;
			hour_12h += 1;
     342:	5f a5       	ldd	r21, Y+47	; 0x2f
     344:	5f 5f       	subi	r21, 0xFF	; 255
     346:	5f a7       	std	Y+47, r21	; 0x2f
			hour_24h += 1;
     348:	6e a5       	ldd	r22, Y+46	; 0x2e
     34a:	6f 5f       	subi	r22, 0xFF	; 255
     34c:	6e a7       	std	Y+46, r22	; 0x2e
		if((getSystemTimeMs()-clock) >=1000){
			seconds += 1;
			clock = getSystemTimeMs();
		}
		if(minutes > 59){
			minutes = 0;
     34e:	1d a6       	std	Y+45, r1	; 0x2d
			hour_12h += 1;
			hour_24h += 1;
		}
		if(seconds > 59){
     350:	88 a9       	ldd	r24, Y+48	; 0x30
     352:	8c 33       	cpi	r24, 0x3C	; 60
     354:	20 f0       	brcs	.+8      	; 0x35e <main+0x22a>
			minutes += 1;
     356:	9d a5       	ldd	r25, Y+45	; 0x2d
     358:	9f 5f       	subi	r25, 0xFF	; 255
     35a:	9d a7       	std	Y+45, r25	; 0x2d
			seconds = 0;
     35c:	18 aa       	std	Y+48, r1	; 0x30
		}
		//12h uhr
		if(hour_12h > 11){
     35e:	ef a5       	ldd	r30, Y+47	; 0x2f
     360:	ec 30       	cpi	r30, 0x0C	; 12
     362:	28 f0       	brcs	.+10     	; 0x36e <main+0x23a>
			hour_12h = 0;
			daytime_flag = daytime_flag ^ 1;
     364:	81 e0       	ldi	r24, 0x01	; 1
     366:	fd ad       	ldd	r31, Y+61	; 0x3d
     368:	f8 27       	eor	r31, r24
     36a:	fd af       	std	Y+61, r31	; 0x3d
			minutes += 1;
			seconds = 0;
		}
		//12h uhr
		if(hour_12h > 11){
			hour_12h = 0;
     36c:	1f a6       	std	Y+47, r1	; 0x2f
			daytime_flag = daytime_flag ^ 1;
		}
		//24h Uhr
		if(hour_24h > 23){
     36e:	2e a5       	ldd	r18, Y+46	; 0x2e
     370:	28 31       	cpi	r18, 0x18	; 24
     372:	38 f0       	brcs	.+14     	; 0x382 <main+0x24e>
			hour_24h = 0;
			day_of_the_week = 0;
			date_day += 1;
     374:	39 a9       	ldd	r19, Y+49	; 0x31
     376:	3f 5f       	subi	r19, 0xFF	; 255
     378:	39 ab       	std	Y+49, r19	; 0x31
			daytime_flag = daytime_flag ^ 1;
		}
		//24h Uhr
		if(hour_24h > 23){
			hour_24h = 0;
			day_of_the_week = 0;
     37a:	2b 96       	adiw	r28, 0x0b	; 11
     37c:	1f ae       	std	Y+63, r1	; 0x3f
     37e:	2b 97       	sbiw	r28, 0x0b	; 11
			hour_12h = 0;
			daytime_flag = daytime_flag ^ 1;
		}
		//24h Uhr
		if(hour_24h > 23){
			hour_24h = 0;
     380:	1e a6       	std	Y+46, r1	; 0x2e
			day_of_the_week = 0;
			date_day += 1;
		}
		//alle tage im monat vorbei
		if(!month | (month == 2)|(month==4)|(month==6)|(month==7)|(month==9)|(month==11) ){
     382:	41 e0       	ldi	r20, 0x01	; 1
     384:	5b a5       	ldd	r21, Y+43	; 0x2b
     386:	51 11       	cpse	r21, r1
     388:	40 e0       	ldi	r20, 0x00	; 0
     38a:	31 e0       	ldi	r19, 0x01	; 1
     38c:	6b a5       	ldd	r22, Y+43	; 0x2b
     38e:	62 30       	cpi	r22, 0x02	; 2
     390:	09 f0       	breq	.+2      	; 0x394 <main+0x260>
     392:	30 e0       	ldi	r19, 0x00	; 0
     394:	43 2b       	or	r20, r19
     396:	31 e0       	ldi	r19, 0x01	; 1
     398:	8b a5       	ldd	r24, Y+43	; 0x2b
     39a:	84 30       	cpi	r24, 0x04	; 4
     39c:	09 f0       	breq	.+2      	; 0x3a0 <main+0x26c>
     39e:	30 e0       	ldi	r19, 0x00	; 0
     3a0:	21 e0       	ldi	r18, 0x01	; 1
     3a2:	9b a5       	ldd	r25, Y+43	; 0x2b
     3a4:	96 30       	cpi	r25, 0x06	; 6
     3a6:	09 f0       	breq	.+2      	; 0x3aa <main+0x276>
     3a8:	20 e0       	ldi	r18, 0x00	; 0
     3aa:	91 e0       	ldi	r25, 0x01	; 1
     3ac:	eb a5       	ldd	r30, Y+43	; 0x2b
     3ae:	e7 30       	cpi	r30, 0x07	; 7
     3b0:	09 f0       	breq	.+2      	; 0x3b4 <main+0x280>
     3b2:	90 e0       	ldi	r25, 0x00	; 0
     3b4:	81 e0       	ldi	r24, 0x01	; 1
     3b6:	fb a5       	ldd	r31, Y+43	; 0x2b
     3b8:	f9 30       	cpi	r31, 0x09	; 9
     3ba:	09 f0       	breq	.+2      	; 0x3be <main+0x28a>
     3bc:	80 e0       	ldi	r24, 0x00	; 0
     3be:	51 e0       	ldi	r21, 0x01	; 1
     3c0:	6b a5       	ldd	r22, Y+43	; 0x2b
     3c2:	6b 30       	cpi	r22, 0x0B	; 11
     3c4:	09 f0       	breq	.+2      	; 0x3c8 <main+0x294>
     3c6:	50 e0       	ldi	r21, 0x00	; 0
     3c8:	34 2b       	or	r19, r20
     3ca:	23 2b       	or	r18, r19
     3cc:	92 2b       	or	r25, r18
     3ce:	89 2b       	or	r24, r25
     3d0:	11 f4       	brne	.+4      	; 0x3d6 <main+0x2a2>
     3d2:	55 23       	and	r21, r21
     3d4:	49 f0       	breq	.+18     	; 0x3e8 <main+0x2b4>
			if(date_day > 31){
     3d6:	89 a9       	ldd	r24, Y+49	; 0x31
     3d8:	80 32       	cpi	r24, 0x20	; 32
     3da:	90 f1       	brcs	.+100    	; 0x440 <__LOCK_REGION_LENGTH__+0x40>
				date_day = 1;
				month += 1;
     3dc:	9b a5       	ldd	r25, Y+43	; 0x2b
     3de:	9f 5f       	subi	r25, 0xFF	; 255
     3e0:	9b a7       	std	Y+43, r25	; 0x2b
			date_day += 1;
		}
		//alle tage im monat vorbei
		if(!month | (month == 2)|(month==4)|(month==6)|(month==7)|(month==9)|(month==11) ){
			if(date_day > 31){
				date_day = 1;
     3e2:	e1 e0       	ldi	r30, 0x01	; 1
     3e4:	e9 ab       	std	Y+49, r30	; 0x31
     3e6:	2c c0       	rjmp	.+88     	; 0x440 <__LOCK_REGION_LENGTH__+0x40>
				month += 1;
			}
		}
		else if((month==3)|(month==5)|(month==8)|(month==10)){
     3e8:	91 e0       	ldi	r25, 0x01	; 1
     3ea:	fb a5       	ldd	r31, Y+43	; 0x2b
     3ec:	f3 30       	cpi	r31, 0x03	; 3
     3ee:	09 f0       	breq	.+2      	; 0x3f2 <main+0x2be>
     3f0:	90 e0       	ldi	r25, 0x00	; 0
     3f2:	81 e0       	ldi	r24, 0x01	; 1
     3f4:	2b a5       	ldd	r18, Y+43	; 0x2b
     3f6:	25 30       	cpi	r18, 0x05	; 5
     3f8:	09 f0       	breq	.+2      	; 0x3fc <main+0x2c8>
     3fa:	80 e0       	ldi	r24, 0x00	; 0
     3fc:	98 2b       	or	r25, r24
     3fe:	81 e0       	ldi	r24, 0x01	; 1
     400:	3b a5       	ldd	r19, Y+43	; 0x2b
     402:	38 30       	cpi	r19, 0x08	; 8
     404:	09 f0       	breq	.+2      	; 0x408 <__LOCK_REGION_LENGTH__+0x8>
     406:	80 e0       	ldi	r24, 0x00	; 0
     408:	21 e0       	ldi	r18, 0x01	; 1
     40a:	5b a5       	ldd	r21, Y+43	; 0x2b
     40c:	5a 30       	cpi	r21, 0x0A	; 10
     40e:	09 f0       	breq	.+2      	; 0x412 <__LOCK_REGION_LENGTH__+0x12>
     410:	20 e0       	ldi	r18, 0x00	; 0
     412:	89 2b       	or	r24, r25
     414:	11 f4       	brne	.+4      	; 0x41a <__LOCK_REGION_LENGTH__+0x1a>
     416:	22 23       	and	r18, r18
     418:	49 f0       	breq	.+18     	; 0x42c <__LOCK_REGION_LENGTH__+0x2c>
			if(date_day > 30){
     41a:	69 a9       	ldd	r22, Y+49	; 0x31
     41c:	6f 31       	cpi	r22, 0x1F	; 31
     41e:	80 f0       	brcs	.+32     	; 0x440 <__LOCK_REGION_LENGTH__+0x40>
				date_day = 1;
				month += 1;
     420:	8b a5       	ldd	r24, Y+43	; 0x2b
     422:	8f 5f       	subi	r24, 0xFF	; 255
     424:	8b a7       	std	Y+43, r24	; 0x2b
				month += 1;
			}
		}
		else if((month==3)|(month==5)|(month==8)|(month==10)){
			if(date_day > 30){
				date_day = 1;
     426:	91 e0       	ldi	r25, 0x01	; 1
     428:	99 ab       	std	Y+49, r25	; 0x31
     42a:	0a c0       	rjmp	.+20     	; 0x440 <__LOCK_REGION_LENGTH__+0x40>
				month += 1;
			}
		}
		else if((month==1)){
     42c:	eb a5       	ldd	r30, Y+43	; 0x2b
     42e:	e1 30       	cpi	r30, 0x01	; 1
     430:	39 f4       	brne	.+14     	; 0x440 <__LOCK_REGION_LENGTH__+0x40>
			if(date_day > 28){
     432:	f9 a9       	ldd	r31, Y+49	; 0x31
     434:	fd 31       	cpi	r31, 0x1D	; 29
     436:	20 f0       	brcs	.+8      	; 0x440 <__LOCK_REGION_LENGTH__+0x40>
				date_day = 1;
				month += 1;
     438:	ef 5f       	subi	r30, 0xFF	; 255
     43a:	eb a7       	std	Y+43, r30	; 0x2b
				month += 1;
			}
		}
		else if((month==1)){
			if(date_day > 28){
				date_day = 1;
     43c:	21 e0       	ldi	r18, 0x01	; 1
     43e:	29 ab       	std	Y+49, r18	; 0x31
				month += 1;
			}
		}
		//Monats overflow
		if(month>12){
     440:	3b a5       	ldd	r19, Y+43	; 0x2b
     442:	3d 30       	cpi	r19, 0x0D	; 13
     444:	10 f0       	brcs	.+4      	; 0x44a <__LOCK_REGION_LENGTH__+0x4a>
			month = 1;
     446:	51 e0       	ldi	r21, 0x01	; 1
     448:	5b a7       	std	Y+43, r21	; 0x2b
		}
		//wechsel zwischen 12 und 24h modus
		if(button_A && (!clock_modes)){
     44a:	14 14       	cp	r1, r4
     44c:	15 04       	cpc	r1, r5
     44e:	3c f4       	brge	.+14     	; 0x45e <__LOCK_REGION_LENGTH__+0x5e>
     450:	81 10       	cpse	r8, r1
     452:	05 c0       	rjmp	.+10     	; 0x45e <__LOCK_REGION_LENGTH__+0x5e>
			twelve_twentyfour = !twelve_twentyfour;
     454:	81 e0       	ldi	r24, 0x01	; 1
     456:	6a ad       	ldd	r22, Y+58	; 0x3a
     458:	61 11       	cpse	r22, r1
     45a:	80 e0       	ldi	r24, 0x00	; 0
     45c:	8a af       	std	Y+58, r24	; 0x3a
		}
		//24 wird angezeigt
		if(!twelve_twentyfour){
     45e:	8a ad       	ldd	r24, Y+58	; 0x3a
     460:	88 23       	and	r24, r24
     462:	21 f0       	breq	.+8      	; 0x46c <__LOCK_REGION_LENGTH__+0x6c>
			daytime = 2;
		}
		//AM oder PM je nach daytime flag wert wird eins der beiden angezeigt
		else{
			if(!daytime_flag){
     464:	9d ad       	ldd	r25, Y+61	; 0x3d
     466:	99 23       	and	r25, r25
     468:	31 f0       	breq	.+12     	; 0x476 <__LOCK_REGION_LENGTH__+0x76>
     46a:	08 c0       	rjmp	.+16     	; 0x47c <__LOCK_REGION_LENGTH__+0x7c>
		if(button_A && (!clock_modes)){
			twelve_twentyfour = !twelve_twentyfour;
		}
		//24 wird angezeigt
		if(!twelve_twentyfour){
			daytime = 2;
     46c:	e2 e0       	ldi	r30, 0x02	; 2
     46e:	29 96       	adiw	r28, 0x09	; 9
     470:	ef af       	std	Y+63, r30	; 0x3f
     472:	29 97       	sbiw	r28, 0x09	; 9
     474:	03 c0       	rjmp	.+6      	; 0x47c <__LOCK_REGION_LENGTH__+0x7c>
		}
		//AM oder PM je nach daytime flag wert wird eins der beiden angezeigt
		else{
			if(!daytime_flag){
				daytime = 0;
     476:	29 96       	adiw	r28, 0x09	; 9
     478:	1f ae       	std	Y+63, r1	; 0x3f
     47a:	29 97       	sbiw	r28, 0x09	; 9
			}
		}
		//taster um das licht einzuschalten
		if(button_L){
     47c:	12 14       	cp	r1, r2
     47e:	13 04       	cpc	r1, r3
     480:	14 f4       	brge	.+4      	; 0x486 <__LOCK_REGION_LENGTH__+0x86>
			clock_light = clock_light ^ 1;
     482:	81 e0       	ldi	r24, 0x01	; 1
     484:	78 26       	eor	r7, r24
		}
		//anzeige der ersten reihe je nach modus
		if(!clock_modes){
     486:	81 10       	cpse	r8, r1
     488:	30 c0       	rjmp	.+96     	; 0x4ea <__LOCK_REGION_LENGTH__+0xea>
			lcdWriteText(0,0,"%s %s",AM_PM[daytime],week_days[day_of_the_week]);
     48a:	2b 96       	adiw	r28, 0x0b	; 11
     48c:	2f ad       	ldd	r18, Y+63	; 0x3f
     48e:	2b 97       	sbiw	r28, 0x0b	; 11
     490:	e2 2f       	mov	r30, r18
     492:	f0 e0       	ldi	r31, 0x00	; 0
     494:	ee 0f       	add	r30, r30
     496:	ff 1f       	adc	r31, r31
     498:	81 e0       	ldi	r24, 0x01	; 1
     49a:	90 e0       	ldi	r25, 0x00	; 0
     49c:	8c 0f       	add	r24, r28
     49e:	9d 1f       	adc	r25, r29
     4a0:	e8 0f       	add	r30, r24
     4a2:	f9 1f       	adc	r31, r25
     4a4:	85 85       	ldd	r24, Z+13	; 0x0d
     4a6:	8f 93       	push	r24
     4a8:	84 85       	ldd	r24, Z+12	; 0x0c
     4aa:	8f 93       	push	r24
     4ac:	29 96       	adiw	r28, 0x09	; 9
     4ae:	9f ad       	ldd	r25, Y+63	; 0x3f
     4b0:	29 97       	sbiw	r28, 0x09	; 9
     4b2:	e9 2f       	mov	r30, r25
     4b4:	f0 e0       	ldi	r31, 0x00	; 0
     4b6:	ee 0f       	add	r30, r30
     4b8:	ff 1f       	adc	r31, r31
     4ba:	21 e0       	ldi	r18, 0x01	; 1
     4bc:	30 e0       	ldi	r19, 0x00	; 0
     4be:	2c 0f       	add	r18, r28
     4c0:	3d 1f       	adc	r19, r29
     4c2:	e2 0f       	add	r30, r18
     4c4:	f3 1f       	adc	r31, r19
     4c6:	81 81       	ldd	r24, Z+1	; 0x01
     4c8:	8f 93       	push	r24
     4ca:	80 81       	ld	r24, Z
     4cc:	8f 93       	push	r24
     4ce:	82 e3       	ldi	r24, 0x32	; 50
     4d0:	92 e0       	ldi	r25, 0x02	; 2
     4d2:	9f 93       	push	r25
     4d4:	8f 93       	push	r24
     4d6:	1f 92       	push	r1
     4d8:	1f 92       	push	r1
     4da:	0e 94 89 0b 	call	0x1712	; 0x1712 <lcdWriteText>
     4de:	0f b6       	in	r0, 0x3f	; 63
     4e0:	f8 94       	cli
     4e2:	de bf       	out	0x3e, r29	; 62
     4e4:	0f be       	out	0x3f, r0	; 63
     4e6:	cd bf       	out	0x3d, r28	; 61
     4e8:	1f c0       	rjmp	.+62     	; 0x528 <__LOCK_REGION_LENGTH__+0x128>
		}
		else if(clock_modes == 1){
     4ea:	91 e0       	ldi	r25, 0x01	; 1
     4ec:	89 12       	cpse	r8, r25
     4ee:	0d c0       	rjmp	.+26     	; 0x50a <__LOCK_REGION_LENGTH__+0x10a>
			lcdWriteText(0,0,AM_PM[4]);
     4f0:	89 85       	ldd	r24, Y+9	; 0x09
     4f2:	9a 85       	ldd	r25, Y+10	; 0x0a
     4f4:	9f 93       	push	r25
     4f6:	8f 93       	push	r24
     4f8:	1f 92       	push	r1
     4fa:	1f 92       	push	r1
     4fc:	0e 94 89 0b 	call	0x1712	; 0x1712 <lcdWriteText>
     500:	0f 90       	pop	r0
     502:	0f 90       	pop	r0
     504:	0f 90       	pop	r0
     506:	0f 90       	pop	r0
     508:	0f c0       	rjmp	.+30     	; 0x528 <__LOCK_REGION_LENGTH__+0x128>
		}
		else if(clock_modes==2){
     50a:	e2 e0       	ldi	r30, 0x02	; 2
     50c:	8e 12       	cpse	r8, r30
     50e:	0c c0       	rjmp	.+24     	; 0x528 <__LOCK_REGION_LENGTH__+0x128>
			lcdWriteText(0,0,AM_PM[3]);
     510:	8f 81       	ldd	r24, Y+7	; 0x07
     512:	98 85       	ldd	r25, Y+8	; 0x08
     514:	9f 93       	push	r25
     516:	8f 93       	push	r24
     518:	1f 92       	push	r1
     51a:	1f 92       	push	r1
     51c:	0e 94 89 0b 	call	0x1712	; 0x1712 <lcdWriteText>
     520:	0f 90       	pop	r0
     522:	0f 90       	pop	r0
     524:	0f 90       	pop	r0
     526:	0f 90       	pop	r0
		}
	//wecker aktivierung
		inZeit_ms = getSystemTimeMs();
     528:	fd d7       	rcall	.+4090   	; 0x1524 <getSystemTimeMs>
     52a:	2a ab       	std	Y+50, r18	; 0x32
     52c:	3b ab       	std	Y+51, r19	; 0x33
     52e:	4c ab       	std	Y+52, r20	; 0x34
     530:	5d ab       	std	Y+53, r21	; 0x35
     532:	6e ab       	std	Y+54, r22	; 0x36
     534:	7f ab       	std	Y+55, r23	; 0x37
     536:	88 af       	std	Y+56, r24	; 0x38
     538:	99 af       	std	Y+57, r25	; 0x39
		
		if(!symbol_mode | (symbol_mode==2)){
     53a:	99 24       	eor	r9, r9
     53c:	93 94       	inc	r9
     53e:	fc a5       	ldd	r31, Y+44	; 0x2c
     540:	f1 11       	cpse	r31, r1
     542:	91 2c       	mov	r9, r1
     544:	81 e0       	ldi	r24, 0x01	; 1
     546:	2c a5       	ldd	r18, Y+44	; 0x2c
     548:	22 30       	cpi	r18, 0x02	; 2
     54a:	09 f0       	breq	.+2      	; 0x54e <__LOCK_REGION_LENGTH__+0x14e>
     54c:	80 e0       	ldi	r24, 0x00	; 0
     54e:	89 29       	or	r24, r9
     550:	09 f4       	brne	.+2      	; 0x554 <__LOCK_REGION_LENGTH__+0x154>
     552:	63 c0       	rjmp	.+198    	; 0x61a <__LOCK_REGION_LENGTH__+0x21a>
			if((wecker_stunden==hour_24h)&&(wecker_minuten==minutes)&&((inZeit_ms-timer_schutz)>=60500)){
     554:	3e a5       	ldd	r19, Y+46	; 0x2e
     556:	2c 96       	adiw	r28, 0x0c	; 12
     558:	5f ad       	ldd	r21, Y+63	; 0x3f
     55a:	2c 97       	sbiw	r28, 0x0c	; 12
     55c:	35 13       	cpse	r19, r21
     55e:	5d c0       	rjmp	.+186    	; 0x61a <__LOCK_REGION_LENGTH__+0x21a>
     560:	6d a5       	ldd	r22, Y+45	; 0x2d
     562:	2e 96       	adiw	r28, 0x0e	; 14
     564:	8f ad       	ldd	r24, Y+63	; 0x3f
     566:	2e 97       	sbiw	r28, 0x0e	; 14
     568:	68 13       	cpse	r22, r24
     56a:	57 c0       	rjmp	.+174    	; 0x61a <__LOCK_REGION_LENGTH__+0x21a>
     56c:	2a a9       	ldd	r18, Y+50	; 0x32
     56e:	3b a9       	ldd	r19, Y+51	; 0x33
     570:	4c a9       	ldd	r20, Y+52	; 0x34
     572:	5d a9       	ldd	r21, Y+53	; 0x35
     574:	6e a9       	ldd	r22, Y+54	; 0x36
     576:	7f a9       	ldd	r23, Y+55	; 0x37
     578:	88 ad       	ldd	r24, Y+56	; 0x38
     57a:	99 ad       	ldd	r25, Y+57	; 0x39
     57c:	6a 96       	adiw	r28, 0x1a	; 26
     57e:	af ac       	ldd	r10, Y+63	; 0x3f
     580:	6a 97       	sbiw	r28, 0x1a	; 26
     582:	6b 96       	adiw	r28, 0x1b	; 27
     584:	bf ac       	ldd	r11, Y+63	; 0x3f
     586:	6b 97       	sbiw	r28, 0x1b	; 27
     588:	6c 96       	adiw	r28, 0x1c	; 28
     58a:	cf ac       	ldd	r12, Y+63	; 0x3f
     58c:	6c 97       	sbiw	r28, 0x1c	; 28
     58e:	6d 96       	adiw	r28, 0x1d	; 29
     590:	df ac       	ldd	r13, Y+63	; 0x3f
     592:	6d 97       	sbiw	r28, 0x1d	; 29
     594:	6e 96       	adiw	r28, 0x1e	; 30
     596:	ef ac       	ldd	r14, Y+63	; 0x3f
     598:	6e 97       	sbiw	r28, 0x1e	; 30
     59a:	6f 96       	adiw	r28, 0x1f	; 31
     59c:	ff ac       	ldd	r15, Y+63	; 0x3f
     59e:	6f 97       	sbiw	r28, 0x1f	; 31
     5a0:	a0 96       	adiw	r28, 0x20	; 32
     5a2:	0f ad       	ldd	r16, Y+63	; 0x3f
     5a4:	a0 97       	sbiw	r28, 0x20	; 32
     5a6:	a1 96       	adiw	r28, 0x21	; 33
     5a8:	1f ad       	ldd	r17, Y+63	; 0x3f
     5aa:	a1 97       	sbiw	r28, 0x21	; 33
     5ac:	0e 94 47 0f 	call	0x1e8e	; 0x1e8e <__subdi3>
     5b0:	23 35       	cpi	r18, 0x53	; 83
     5b2:	3c 4e       	sbci	r19, 0xEC	; 236
     5b4:	41 05       	cpc	r20, r1
     5b6:	51 05       	cpc	r21, r1
     5b8:	61 05       	cpc	r22, r1
     5ba:	71 05       	cpc	r23, r1
     5bc:	81 05       	cpc	r24, r1
     5be:	91 05       	cpc	r25, r1
     5c0:	61 f1       	breq	.+88     	; 0x61a <__LOCK_REGION_LENGTH__+0x21a>
     5c2:	58 f1       	brcs	.+86     	; 0x61a <__LOCK_REGION_LENGTH__+0x21a>
				rgbWrite(255,0,0);
     5c4:	40 e0       	ldi	r20, 0x00	; 0
     5c6:	50 e0       	ldi	r21, 0x00	; 0
     5c8:	60 e0       	ldi	r22, 0x00	; 0
     5ca:	70 e0       	ldi	r23, 0x00	; 0
     5cc:	8f ef       	ldi	r24, 0xFF	; 255
     5ce:	90 e0       	ldi	r25, 0x00	; 0
     5d0:	cf d7       	rcall	.+3998   	; 0x1570 <rgbWrite>
				alarm_flag = 1;
				timer_schutz = inZeit_ms;
     5d2:	fa a9       	ldd	r31, Y+50	; 0x32
     5d4:	6a 96       	adiw	r28, 0x1a	; 26
     5d6:	ff af       	std	Y+63, r31	; 0x3f
     5d8:	6a 97       	sbiw	r28, 0x1a	; 26
     5da:	2b a9       	ldd	r18, Y+51	; 0x33
     5dc:	6b 96       	adiw	r28, 0x1b	; 27
     5de:	2f af       	std	Y+63, r18	; 0x3f
     5e0:	6b 97       	sbiw	r28, 0x1b	; 27
     5e2:	3c a9       	ldd	r19, Y+52	; 0x34
     5e4:	6c 96       	adiw	r28, 0x1c	; 28
     5e6:	3f af       	std	Y+63, r19	; 0x3f
     5e8:	6c 97       	sbiw	r28, 0x1c	; 28
     5ea:	5d a9       	ldd	r21, Y+53	; 0x35
     5ec:	6d 96       	adiw	r28, 0x1d	; 29
     5ee:	5f af       	std	Y+63, r21	; 0x3f
     5f0:	6d 97       	sbiw	r28, 0x1d	; 29
     5f2:	6e a9       	ldd	r22, Y+54	; 0x36
     5f4:	6e 96       	adiw	r28, 0x1e	; 30
     5f6:	6f af       	std	Y+63, r22	; 0x3f
     5f8:	6e 97       	sbiw	r28, 0x1e	; 30
     5fa:	8f a9       	ldd	r24, Y+55	; 0x37
     5fc:	6f 96       	adiw	r28, 0x1f	; 31
     5fe:	8f af       	std	Y+63, r24	; 0x3f
     600:	6f 97       	sbiw	r28, 0x1f	; 31
     602:	98 ad       	ldd	r25, Y+56	; 0x38
     604:	a0 96       	adiw	r28, 0x20	; 32
     606:	9f af       	std	Y+63, r25	; 0x3f
     608:	a0 97       	sbiw	r28, 0x20	; 32
     60a:	e9 ad       	ldd	r30, Y+57	; 0x39
     60c:	a1 96       	adiw	r28, 0x21	; 33
     60e:	ef af       	std	Y+63, r30	; 0x3f
     610:	a1 97       	sbiw	r28, 0x21	; 33
		inZeit_ms = getSystemTimeMs();
		
		if(!symbol_mode | (symbol_mode==2)){
			if((wecker_stunden==hour_24h)&&(wecker_minuten==minutes)&&((inZeit_ms-timer_schutz)>=60500)){
				rgbWrite(255,0,0);
				alarm_flag = 1;
     612:	f1 e0       	ldi	r31, 0x01	; 1
     614:	27 96       	adiw	r28, 0x07	; 7
     616:	ff af       	std	Y+63, r31	; 0x3f
     618:	27 97       	sbiw	r28, 0x07	; 7
				timer_schutz = inZeit_ms;
			}
		}
		if(!symbol_mode | (symbol_mode ==3)){
     61a:	81 e0       	ldi	r24, 0x01	; 1
     61c:	2c a5       	ldd	r18, Y+44	; 0x2c
     61e:	23 30       	cpi	r18, 0x03	; 3
     620:	09 f0       	breq	.+2      	; 0x624 <__LOCK_REGION_LENGTH__+0x224>
     622:	80 e0       	ldi	r24, 0x00	; 0
     624:	98 2a       	or	r9, r24
     626:	89 f1       	breq	.+98     	; 0x68a <__LOCK_REGION_LENGTH__+0x28a>
			if((minutes == 0) && (seconds == 0)){
     628:	3d a5       	ldd	r19, Y+45	; 0x2d
     62a:	31 11       	cpse	r19, r1
     62c:	2e c0       	rjmp	.+92     	; 0x68a <__LOCK_REGION_LENGTH__+0x28a>
     62e:	58 a9       	ldd	r21, Y+48	; 0x30
     630:	51 11       	cpse	r21, r1
     632:	2b c0       	rjmp	.+86     	; 0x68a <__LOCK_REGION_LENGTH__+0x28a>
				rgbWrite(255,0,0);
     634:	40 e0       	ldi	r20, 0x00	; 0
     636:	50 e0       	ldi	r21, 0x00	; 0
     638:	60 e0       	ldi	r22, 0x00	; 0
     63a:	70 e0       	ldi	r23, 0x00	; 0
     63c:	8f ef       	ldi	r24, 0xFF	; 255
     63e:	90 e0       	ldi	r25, 0x00	; 0
     640:	97 d7       	rcall	.+3886   	; 0x1570 <rgbWrite>
				alarm_flag = 1;
				timer_schutz = inZeit_ms;
     642:	6a a9       	ldd	r22, Y+50	; 0x32
     644:	6a 96       	adiw	r28, 0x1a	; 26
     646:	6f af       	std	Y+63, r22	; 0x3f
     648:	6a 97       	sbiw	r28, 0x1a	; 26
     64a:	8b a9       	ldd	r24, Y+51	; 0x33
     64c:	6b 96       	adiw	r28, 0x1b	; 27
     64e:	8f af       	std	Y+63, r24	; 0x3f
     650:	6b 97       	sbiw	r28, 0x1b	; 27
     652:	9c a9       	ldd	r25, Y+52	; 0x34
     654:	6c 96       	adiw	r28, 0x1c	; 28
     656:	9f af       	std	Y+63, r25	; 0x3f
     658:	6c 97       	sbiw	r28, 0x1c	; 28
     65a:	ed a9       	ldd	r30, Y+53	; 0x35
     65c:	6d 96       	adiw	r28, 0x1d	; 29
     65e:	ef af       	std	Y+63, r30	; 0x3f
     660:	6d 97       	sbiw	r28, 0x1d	; 29
     662:	fe a9       	ldd	r31, Y+54	; 0x36
     664:	6e 96       	adiw	r28, 0x1e	; 30
     666:	ff af       	std	Y+63, r31	; 0x3f
     668:	6e 97       	sbiw	r28, 0x1e	; 30
     66a:	2f a9       	ldd	r18, Y+55	; 0x37
     66c:	6f 96       	adiw	r28, 0x1f	; 31
     66e:	2f af       	std	Y+63, r18	; 0x3f
     670:	6f 97       	sbiw	r28, 0x1f	; 31
     672:	38 ad       	ldd	r19, Y+56	; 0x38
     674:	a0 96       	adiw	r28, 0x20	; 32
     676:	3f af       	std	Y+63, r19	; 0x3f
     678:	a0 97       	sbiw	r28, 0x20	; 32
     67a:	59 ad       	ldd	r21, Y+57	; 0x39
     67c:	a1 96       	adiw	r28, 0x21	; 33
     67e:	5f af       	std	Y+63, r21	; 0x3f
     680:	a1 97       	sbiw	r28, 0x21	; 33
			}
		}
		if(!symbol_mode | (symbol_mode ==3)){
			if((minutes == 0) && (seconds == 0)){
				rgbWrite(255,0,0);
				alarm_flag = 1;
     682:	61 e0       	ldi	r22, 0x01	; 1
     684:	27 96       	adiw	r28, 0x07	; 7
     686:	6f af       	std	Y+63, r22	; 0x3f
     688:	27 97       	sbiw	r28, 0x07	; 7
				timer_schutz = inZeit_ms;
			}
		}
		if(alarm_flag && button_L){
     68a:	27 96       	adiw	r28, 0x07	; 7
     68c:	8f ad       	ldd	r24, Y+63	; 0x3f
     68e:	27 97       	sbiw	r28, 0x07	; 7
     690:	88 23       	and	r24, r24
     692:	89 f0       	breq	.+34     	; 0x6b6 <__LOCK_REGION_LENGTH__+0x2b6>
     694:	12 14       	cp	r1, r2
     696:	13 04       	cpc	r1, r3
     698:	74 f4       	brge	.+28     	; 0x6b6 <__LOCK_REGION_LENGTH__+0x2b6>
			rgbWrite(0,0,0);
     69a:	40 e0       	ldi	r20, 0x00	; 0
     69c:	50 e0       	ldi	r21, 0x00	; 0
     69e:	60 e0       	ldi	r22, 0x00	; 0
     6a0:	70 e0       	ldi	r23, 0x00	; 0
     6a2:	80 e0       	ldi	r24, 0x00	; 0
     6a4:	90 e0       	ldi	r25, 0x00	; 0
     6a6:	64 d7       	rcall	.+3784   	; 0x1570 <rgbWrite>
			clock_light = !clock_light;
     6a8:	81 e0       	ldi	r24, 0x01	; 1
     6aa:	71 10       	cpse	r7, r1
     6ac:	80 e0       	ldi	r24, 0x00	; 0
     6ae:	78 2e       	mov	r7, r24
			alarm_flag = 0;
     6b0:	27 96       	adiw	r28, 0x07	; 7
     6b2:	1f ae       	std	Y+63, r1	; 0x3f
     6b4:	27 97       	sbiw	r28, 0x07	; 7
		}
			if(!symbol_mode){
     6b6:	9c a5       	ldd	r25, Y+44	; 0x2c
     6b8:	91 11       	cpse	r25, r1
     6ba:	14 c0       	rjmp	.+40     	; 0x6e4 <__LOCK_REGION_LENGTH__+0x2e4>
				lcdWriteText(2,0,"%c %c", stripes_symbol, clock_symbol);
     6bc:	1f 92       	push	r1
     6be:	81 e0       	ldi	r24, 0x01	; 1
     6c0:	8f 93       	push	r24
     6c2:	1f 92       	push	r1
     6c4:	82 e0       	ldi	r24, 0x02	; 2
     6c6:	8f 93       	push	r24
     6c8:	28 e3       	ldi	r18, 0x38	; 56
     6ca:	32 e0       	ldi	r19, 0x02	; 2
     6cc:	3f 93       	push	r19
     6ce:	2f 93       	push	r18
     6d0:	1f 92       	push	r1
     6d2:	8f 93       	push	r24
     6d4:	0e 94 89 0b 	call	0x1712	; 0x1712 <lcdWriteText>
     6d8:	0f b6       	in	r0, 0x3f	; 63
     6da:	f8 94       	cli
     6dc:	de bf       	out	0x3e, r29	; 62
     6de:	0f be       	out	0x3f, r0	; 63
     6e0:	cd bf       	out	0x3d, r28	; 61
     6e2:	36 c0       	rjmp	.+108    	; 0x750 <__LOCK_REGION_LENGTH__+0x350>
			}
			else if(symbol_mode == 1){
     6e4:	fc a5       	ldd	r31, Y+44	; 0x2c
     6e6:	f1 30       	cpi	r31, 0x01	; 1
     6e8:	71 f4       	brne	.+28     	; 0x706 <__LOCK_REGION_LENGTH__+0x306>
				lcdWriteText(2,0,"   ");
     6ea:	89 e6       	ldi	r24, 0x69	; 105
     6ec:	92 e0       	ldi	r25, 0x02	; 2
     6ee:	9f 93       	push	r25
     6f0:	8f 93       	push	r24
     6f2:	1f 92       	push	r1
     6f4:	82 e0       	ldi	r24, 0x02	; 2
     6f6:	8f 93       	push	r24
     6f8:	0e 94 89 0b 	call	0x1712	; 0x1712 <lcdWriteText>
     6fc:	0f 90       	pop	r0
     6fe:	0f 90       	pop	r0
     700:	0f 90       	pop	r0
     702:	0f 90       	pop	r0
     704:	25 c0       	rjmp	.+74     	; 0x750 <__LOCK_REGION_LENGTH__+0x350>
			}
			else if(symbol_mode == 2){
     706:	2c a5       	ldd	r18, Y+44	; 0x2c
     708:	22 30       	cpi	r18, 0x02	; 2
     70a:	89 f4       	brne	.+34     	; 0x72e <__LOCK_REGION_LENGTH__+0x32e>
				lcdWriteText(2,0,"%c",stripes_symbol);
     70c:	1f 92       	push	r1
     70e:	82 e0       	ldi	r24, 0x02	; 2
     710:	8f 93       	push	r24
     712:	2b e3       	ldi	r18, 0x3B	; 59
     714:	32 e0       	ldi	r19, 0x02	; 2
     716:	3f 93       	push	r19
     718:	2f 93       	push	r18
     71a:	1f 92       	push	r1
     71c:	8f 93       	push	r24
     71e:	f9 d7       	rcall	.+4082   	; 0x1712 <lcdWriteText>
     720:	0f 90       	pop	r0
     722:	0f 90       	pop	r0
     724:	0f 90       	pop	r0
     726:	0f 90       	pop	r0
     728:	0f 90       	pop	r0
     72a:	0f 90       	pop	r0
     72c:	11 c0       	rjmp	.+34     	; 0x750 <__LOCK_REGION_LENGTH__+0x350>
			}
			else{
				lcdWriteText(2,0,"%c", clock_symbol);
     72e:	1f 92       	push	r1
     730:	81 e0       	ldi	r24, 0x01	; 1
     732:	8f 93       	push	r24
     734:	8b e3       	ldi	r24, 0x3B	; 59
     736:	92 e0       	ldi	r25, 0x02	; 2
     738:	9f 93       	push	r25
     73a:	8f 93       	push	r24
     73c:	1f 92       	push	r1
     73e:	82 e0       	ldi	r24, 0x02	; 2
     740:	8f 93       	push	r24
     742:	e7 d7       	rcall	.+4046   	; 0x1712 <lcdWriteText>
     744:	0f 90       	pop	r0
     746:	0f 90       	pop	r0
     748:	0f 90       	pop	r0
     74a:	0f 90       	pop	r0
     74c:	0f 90       	pop	r0
     74e:	0f 90       	pop	r0
			}
			
			if((inZeit_ms-blink_timer)>=100){
     750:	2a a9       	ldd	r18, Y+50	; 0x32
     752:	3b a9       	ldd	r19, Y+51	; 0x33
     754:	4c a9       	ldd	r20, Y+52	; 0x34
     756:	5d a9       	ldd	r21, Y+53	; 0x35
     758:	6e a9       	ldd	r22, Y+54	; 0x36
     75a:	7f a9       	ldd	r23, Y+55	; 0x37
     75c:	88 ad       	ldd	r24, Y+56	; 0x38
     75e:	99 ad       	ldd	r25, Y+57	; 0x39
     760:	a3 e6       	ldi	r26, 0x63	; 99
     762:	0e 94 50 0f 	call	0x1ea0	; 0x1ea0 <__cmpdi2_s8>
     766:	51 f0       	breq	.+20     	; 0x77c <__LOCK_REGION_LENGTH__+0x37c>
     768:	48 f0       	brcs	.+18     	; 0x77c <__LOCK_REGION_LENGTH__+0x37c>
				blink_flag = !blink_flag;
     76a:	81 e0       	ldi	r24, 0x01	; 1
     76c:	28 96       	adiw	r28, 0x08	; 8
     76e:	3f ad       	ldd	r19, Y+63	; 0x3f
     770:	28 97       	sbiw	r28, 0x08	; 8
     772:	31 11       	cpse	r19, r1
     774:	80 e0       	ldi	r24, 0x00	; 0
     776:	28 96       	adiw	r28, 0x08	; 8
     778:	8f af       	std	Y+63, r24	; 0x3f
     77a:	28 97       	sbiw	r28, 0x08	; 8
			}
	//cases
	switch (clock_modes){
     77c:	51 e0       	ldi	r21, 0x01	; 1
     77e:	85 16       	cp	r8, r21
     780:	09 f4       	brne	.+2      	; 0x784 <__LOCK_REGION_LENGTH__+0x384>
     782:	58 c0       	rjmp	.+176    	; 0x834 <__LOCK_REGION_LENGTH__+0x434>
     784:	85 16       	cp	r8, r21
     786:	48 f0       	brcs	.+18     	; 0x79a <__LOCK_REGION_LENGTH__+0x39a>
     788:	62 e0       	ldi	r22, 0x02	; 2
     78a:	86 16       	cp	r8, r22
     78c:	09 f4       	brne	.+2      	; 0x790 <__LOCK_REGION_LENGTH__+0x390>
     78e:	17 c1       	rjmp	.+558    	; 0x9be <__LOCK_REGION_LENGTH__+0x5be>
     790:	83 e0       	ldi	r24, 0x03	; 3
     792:	88 16       	cp	r8, r24
     794:	09 f4       	brne	.+2      	; 0x798 <__LOCK_REGION_LENGTH__+0x398>
     796:	d4 c2       	rjmp	.+1448   	; 0xd40 <__LOCK_REGION_LENGTH__+0x940>
     798:	ab c6       	rjmp	.+3414   	; 0x14f0 <__EEPROM_REGION_LENGTH__+0x4f0>
		case 0:
			//time	
			lcdWriteText(0,18,"%u",date_day);
     79a:	1f 92       	push	r1
     79c:	99 a9       	ldd	r25, Y+49	; 0x31
     79e:	9f 93       	push	r25
     7a0:	8e e3       	ldi	r24, 0x3E	; 62
     7a2:	92 e0       	ldi	r25, 0x02	; 2
     7a4:	9f 93       	push	r25
     7a6:	8f 93       	push	r24
     7a8:	82 e1       	ldi	r24, 0x12	; 18
     7aa:	8f 93       	push	r24
     7ac:	1f 92       	push	r1
     7ae:	b1 d7       	rcall	.+3938   	; 0x1712 <lcdWriteText>
			lcdWriteText(1,2,":%02u:%02u",minutes,seconds);
     7b0:	1f 92       	push	r1
     7b2:	e8 a9       	ldd	r30, Y+48	; 0x30
     7b4:	ef 93       	push	r30
     7b6:	1f 92       	push	r1
     7b8:	fd a5       	ldd	r31, Y+45	; 0x2d
     7ba:	ff 93       	push	r31
     7bc:	8d e4       	ldi	r24, 0x4D	; 77
     7be:	92 e0       	ldi	r25, 0x02	; 2
     7c0:	9f 93       	push	r25
     7c2:	8f 93       	push	r24
     7c4:	82 e0       	ldi	r24, 0x02	; 2
     7c6:	8f 93       	push	r24
     7c8:	81 e0       	ldi	r24, 0x01	; 1
     7ca:	8f 93       	push	r24
     7cc:	a2 d7       	rcall	.+3908   	; 0x1712 <lcdWriteText>
			if(!twelve_twentyfour){
     7ce:	0f b6       	in	r0, 0x3f	; 63
     7d0:	f8 94       	cli
     7d2:	de bf       	out	0x3e, r29	; 62
     7d4:	0f be       	out	0x3f, r0	; 63
     7d6:	cd bf       	out	0x3d, r28	; 61
     7d8:	3a ad       	ldd	r19, Y+58	; 0x3a
     7da:	31 11       	cpse	r19, r1
     7dc:	12 c0       	rjmp	.+36     	; 0x802 <__LOCK_REGION_LENGTH__+0x402>
				lcdWriteText(1,0,"%02u",hour_24h);
     7de:	1f 92       	push	r1
     7e0:	5e a5       	ldd	r21, Y+46	; 0x2e
     7e2:	5f 93       	push	r21
     7e4:	83 e5       	ldi	r24, 0x53	; 83
     7e6:	92 e0       	ldi	r25, 0x02	; 2
     7e8:	9f 93       	push	r25
     7ea:	8f 93       	push	r24
     7ec:	1f 92       	push	r1
     7ee:	81 e0       	ldi	r24, 0x01	; 1
     7f0:	8f 93       	push	r24
     7f2:	8f d7       	rcall	.+3870   	; 0x1712 <lcdWriteText>
     7f4:	0f 90       	pop	r0
     7f6:	0f 90       	pop	r0
     7f8:	0f 90       	pop	r0
     7fa:	0f 90       	pop	r0
     7fc:	0f 90       	pop	r0
     7fe:	0f 90       	pop	r0
     800:	11 c0       	rjmp	.+34     	; 0x824 <__LOCK_REGION_LENGTH__+0x424>
			}
			else{
				lcdWriteText(1,0,"%02u",hour_12h);
     802:	1f 92       	push	r1
     804:	6f a5       	ldd	r22, Y+47	; 0x2f
     806:	6f 93       	push	r22
     808:	83 e5       	ldi	r24, 0x53	; 83
     80a:	92 e0       	ldi	r25, 0x02	; 2
     80c:	9f 93       	push	r25
     80e:	8f 93       	push	r24
     810:	1f 92       	push	r1
     812:	81 e0       	ldi	r24, 0x01	; 1
     814:	8f 93       	push	r24
     816:	7d d7       	rcall	.+3834   	; 0x1712 <lcdWriteText>
     818:	0f 90       	pop	r0
     81a:	0f 90       	pop	r0
     81c:	0f 90       	pop	r0
     81e:	0f 90       	pop	r0
     820:	0f 90       	pop	r0
     822:	0f 90       	pop	r0
			}
			if(button_c){
     824:	8b ad       	ldd	r24, Y+59	; 0x3b
     826:	9c ad       	ldd	r25, Y+60	; 0x3c
     828:	18 16       	cp	r1, r24
     82a:	19 06       	cpc	r1, r25
     82c:	0c f0       	brlt	.+2      	; 0x830 <__LOCK_REGION_LENGTH__+0x430>
     82e:	60 c6       	rjmp	.+3264   	; 0x14f0 <__EEPROM_REGION_LENGTH__+0x4f0>
				clock_modes += 1;
     830:	83 94       	inc	r8
     832:	5e c6       	rjmp	.+3260   	; 0x14f0 <__EEPROM_REGION_LENGTH__+0x4f0>
			}
		break;
		
		case 1://daily alarm
			if(button_c){
     834:	eb ad       	ldd	r30, Y+59	; 0x3b
     836:	fc ad       	ldd	r31, Y+60	; 0x3c
     838:	1e 16       	cp	r1, r30
     83a:	1f 06       	cpc	r1, r31
     83c:	0c f4       	brge	.+2      	; 0x840 <__LOCK_REGION_LENGTH__+0x440>
				clock_modes += 1;
     83e:	83 94       	inc	r8
			}
			if(button_A && (!wecker_modes)){
     840:	14 14       	cp	r1, r4
     842:	15 04       	cpc	r1, r5
     844:	44 f4       	brge	.+16     	; 0x856 <__LOCK_REGION_LENGTH__+0x456>
     846:	2d 96       	adiw	r28, 0x0d	; 13
     848:	ff ad       	ldd	r31, Y+63	; 0x3f
     84a:	2d 97       	sbiw	r28, 0x0d	; 13
     84c:	f1 11       	cpse	r31, r1
     84e:	03 c0       	rjmp	.+6      	; 0x856 <__LOCK_REGION_LENGTH__+0x456>
				symbol_mode += 1;
     850:	2c a5       	ldd	r18, Y+44	; 0x2c
     852:	2f 5f       	subi	r18, 0xFF	; 255
     854:	2c a7       	std	Y+44, r18	; 0x2c
			}
			if(symbol_mode >3){
     856:	3c a5       	ldd	r19, Y+44	; 0x2c
     858:	34 30       	cpi	r19, 0x04	; 4
     85a:	08 f0       	brcs	.+2      	; 0x85e <__LOCK_REGION_LENGTH__+0x45e>
				symbol_mode = 0;
     85c:	1c a6       	std	Y+44, r1	; 0x2c
			}
			lcdWriteText(1,0,"%02u",wecker_stunden);
     85e:	1f 92       	push	r1
     860:	2c 96       	adiw	r28, 0x0c	; 12
     862:	5f ad       	ldd	r21, Y+63	; 0x3f
     864:	2c 97       	sbiw	r28, 0x0c	; 12
     866:	5f 93       	push	r21
     868:	83 e5       	ldi	r24, 0x53	; 83
     86a:	92 e0       	ldi	r25, 0x02	; 2
     86c:	9f 93       	push	r25
     86e:	8f 93       	push	r24
     870:	1f 92       	push	r1
     872:	11 e0       	ldi	r17, 0x01	; 1
     874:	1f 93       	push	r17
     876:	4d d7       	rcall	.+3738   	; 0x1712 <lcdWriteText>
			lcdWriteText(1,3,"%02u ",wecker_minuten);
     878:	1f 92       	push	r1
     87a:	2e 96       	adiw	r28, 0x0e	; 14
     87c:	6f ad       	ldd	r22, Y+63	; 0x3f
     87e:	2e 97       	sbiw	r28, 0x0e	; 14
     880:	6f 93       	push	r22
     882:	81 e4       	ldi	r24, 0x41	; 65
     884:	92 e0       	ldi	r25, 0x02	; 2
     886:	9f 93       	push	r25
     888:	8f 93       	push	r24
     88a:	83 e0       	ldi	r24, 0x03	; 3
     88c:	8f 93       	push	r24
     88e:	1f 93       	push	r17
     890:	40 d7       	rcall	.+3712   	; 0x1712 <lcdWriteText>
			lcdWriteText(1,6,"  ");
     892:	8a e6       	ldi	r24, 0x6A	; 106
     894:	92 e0       	ldi	r25, 0x02	; 2
     896:	9f 93       	push	r25
     898:	8f 93       	push	r24
     89a:	86 e0       	ldi	r24, 0x06	; 6
     89c:	8f 93       	push	r24
     89e:	1f 93       	push	r17
     8a0:	38 d7       	rcall	.+3696   	; 0x1712 <lcdWriteText>
			switch (wecker_modes){
     8a2:	0f b6       	in	r0, 0x3f	; 63
     8a4:	f8 94       	cli
     8a6:	de bf       	out	0x3e, r29	; 62
     8a8:	0f be       	out	0x3f, r0	; 63
     8aa:	cd bf       	out	0x3d, r28	; 61
     8ac:	2d 96       	adiw	r28, 0x0d	; 13
     8ae:	9f ad       	ldd	r25, Y+63	; 0x3f
     8b0:	2d 97       	sbiw	r28, 0x0d	; 13
     8b2:	91 30       	cpi	r25, 0x01	; 1
     8b4:	99 f0       	breq	.+38     	; 0x8dc <__LOCK_REGION_LENGTH__+0x4dc>
     8b6:	20 f0       	brcs	.+8      	; 0x8c0 <__LOCK_REGION_LENGTH__+0x4c0>
     8b8:	92 30       	cpi	r25, 0x02	; 2
     8ba:	09 f4       	brne	.+2      	; 0x8be <__LOCK_REGION_LENGTH__+0x4be>
     8bc:	4f c0       	rjmp	.+158    	; 0x95c <__LOCK_REGION_LENGTH__+0x55c>
     8be:	18 c6       	rjmp	.+3120   	; 0x14f0 <__EEPROM_REGION_LENGTH__+0x4f0>
				case 0: //nichts
					
					if(button_L){
     8c0:	12 14       	cp	r1, r2
     8c2:	13 04       	cpc	r1, r3
     8c4:	0c f0       	brlt	.+2      	; 0x8c8 <__LOCK_REGION_LENGTH__+0x4c8>
     8c6:	14 c6       	rjmp	.+3112   	; 0x14f0 <__EEPROM_REGION_LENGTH__+0x4f0>
						wecker_modes += 1;
     8c8:	2d 96       	adiw	r28, 0x0d	; 13
     8ca:	ef ad       	ldd	r30, Y+63	; 0x3f
     8cc:	2d 97       	sbiw	r28, 0x0d	; 13
     8ce:	ef 5f       	subi	r30, 0xFF	; 255
     8d0:	2d 96       	adiw	r28, 0x0d	; 13
     8d2:	ef af       	std	Y+63, r30	; 0x3f
     8d4:	2d 97       	sbiw	r28, 0x0d	; 13
						clock_light = 1;
     8d6:	77 24       	eor	r7, r7
     8d8:	73 94       	inc	r7
     8da:	0a c6       	rjmp	.+3092   	; 0x14f0 <__EEPROM_REGION_LENGTH__+0x4f0>
					}
				break;
				case 1: //stunden
					if(blink_flag){
     8dc:	28 96       	adiw	r28, 0x08	; 8
     8de:	ff ad       	ldd	r31, Y+63	; 0x3f
     8e0:	28 97       	sbiw	r28, 0x08	; 8
     8e2:	ff 23       	and	r31, r31
     8e4:	71 f0       	breq	.+28     	; 0x902 <__LOCK_REGION_LENGTH__+0x502>
						lcdWriteText(1,2,":");
     8e6:	87 e4       	ldi	r24, 0x47	; 71
     8e8:	92 e0       	ldi	r25, 0x02	; 2
     8ea:	9f 93       	push	r25
     8ec:	8f 93       	push	r24
     8ee:	82 e0       	ldi	r24, 0x02	; 2
     8f0:	8f 93       	push	r24
     8f2:	81 e0       	ldi	r24, 0x01	; 1
     8f4:	8f 93       	push	r24
     8f6:	0d d7       	rcall	.+3610   	; 0x1712 <lcdWriteText>
     8f8:	0f 90       	pop	r0
     8fa:	0f 90       	pop	r0
     8fc:	0f 90       	pop	r0
     8fe:	0f 90       	pop	r0
     900:	0d c0       	rjmp	.+26     	; 0x91c <__LOCK_REGION_LENGTH__+0x51c>
					}
					else
					{
						lcdWriteText(1,2," ");
     902:	8b e6       	ldi	r24, 0x6B	; 107
     904:	92 e0       	ldi	r25, 0x02	; 2
     906:	9f 93       	push	r25
     908:	8f 93       	push	r24
     90a:	82 e0       	ldi	r24, 0x02	; 2
     90c:	8f 93       	push	r24
     90e:	81 e0       	ldi	r24, 0x01	; 1
     910:	8f 93       	push	r24
     912:	ff d6       	rcall	.+3582   	; 0x1712 <lcdWriteText>
     914:	0f 90       	pop	r0
     916:	0f 90       	pop	r0
     918:	0f 90       	pop	r0
     91a:	0f 90       	pop	r0
					}
					if(button_A){
     91c:	14 14       	cp	r1, r4
     91e:	15 04       	cpc	r1, r5
     920:	3c f4       	brge	.+14     	; 0x930 <__LOCK_REGION_LENGTH__+0x530>
						wecker_stunden += 1;
     922:	2c 96       	adiw	r28, 0x0c	; 12
     924:	2f ad       	ldd	r18, Y+63	; 0x3f
     926:	2c 97       	sbiw	r28, 0x0c	; 12
     928:	2f 5f       	subi	r18, 0xFF	; 255
     92a:	2c 96       	adiw	r28, 0x0c	; 12
     92c:	2f af       	std	Y+63, r18	; 0x3f
     92e:	2c 97       	sbiw	r28, 0x0c	; 12
					}
					if(wecker_stunden>23){
     930:	2c 96       	adiw	r28, 0x0c	; 12
     932:	3f ad       	ldd	r19, Y+63	; 0x3f
     934:	2c 97       	sbiw	r28, 0x0c	; 12
     936:	38 31       	cpi	r19, 0x18	; 24
     938:	18 f0       	brcs	.+6      	; 0x940 <__LOCK_REGION_LENGTH__+0x540>
						wecker_stunden = 0;
     93a:	2c 96       	adiw	r28, 0x0c	; 12
     93c:	1f ae       	std	Y+63, r1	; 0x3f
     93e:	2c 97       	sbiw	r28, 0x0c	; 12
					}
					if(button_L){
     940:	12 14       	cp	r1, r2
     942:	13 04       	cpc	r1, r3
     944:	0c f0       	brlt	.+2      	; 0x948 <__LOCK_REGION_LENGTH__+0x548>
     946:	d4 c5       	rjmp	.+2984   	; 0x14f0 <__EEPROM_REGION_LENGTH__+0x4f0>
						wecker_modes += 1;
     948:	2d 96       	adiw	r28, 0x0d	; 13
     94a:	5f ad       	ldd	r21, Y+63	; 0x3f
     94c:	2d 97       	sbiw	r28, 0x0d	; 13
     94e:	5f 5f       	subi	r21, 0xFF	; 255
     950:	2d 96       	adiw	r28, 0x0d	; 13
     952:	5f af       	std	Y+63, r21	; 0x3f
     954:	2d 97       	sbiw	r28, 0x0d	; 13
						clock_light = 1;
     956:	77 24       	eor	r7, r7
     958:	73 94       	inc	r7
     95a:	ca c5       	rjmp	.+2964   	; 0x14f0 <__EEPROM_REGION_LENGTH__+0x4f0>
					}
				break;
				case 2: // minutes

					if(blink_flag){
     95c:	28 96       	adiw	r28, 0x08	; 8
     95e:	6f ad       	ldd	r22, Y+63	; 0x3f
     960:	28 97       	sbiw	r28, 0x08	; 8
     962:	66 23       	and	r22, r22
						lcdWriteText(1,5,":");
     964:	71 f0       	breq	.+28     	; 0x982 <__LOCK_REGION_LENGTH__+0x582>
     966:	87 e4       	ldi	r24, 0x47	; 71
     968:	92 e0       	ldi	r25, 0x02	; 2
     96a:	9f 93       	push	r25
     96c:	8f 93       	push	r24
     96e:	85 e0       	ldi	r24, 0x05	; 5
     970:	8f 93       	push	r24
     972:	81 e0       	ldi	r24, 0x01	; 1
     974:	8f 93       	push	r24
     976:	cd d6       	rcall	.+3482   	; 0x1712 <lcdWriteText>
     978:	0f 90       	pop	r0
     97a:	0f 90       	pop	r0
     97c:	0f 90       	pop	r0
     97e:	0f 90       	pop	r0
					}
					else
					{
						lcdWriteText(1,5," ");
     980:	0d c0       	rjmp	.+26     	; 0x99c <__LOCK_REGION_LENGTH__+0x59c>
     982:	8b e6       	ldi	r24, 0x6B	; 107
     984:	92 e0       	ldi	r25, 0x02	; 2
     986:	9f 93       	push	r25
     988:	8f 93       	push	r24
     98a:	85 e0       	ldi	r24, 0x05	; 5
     98c:	8f 93       	push	r24
     98e:	81 e0       	ldi	r24, 0x01	; 1
     990:	8f 93       	push	r24
     992:	bf d6       	rcall	.+3454   	; 0x1712 <lcdWriteText>
     994:	0f 90       	pop	r0
     996:	0f 90       	pop	r0
     998:	0f 90       	pop	r0
     99a:	0f 90       	pop	r0
					}
					if(button_A){
     99c:	14 14       	cp	r1, r4
     99e:	15 04       	cpc	r1, r5
     9a0:	3c f4       	brge	.+14     	; 0x9b0 <__LOCK_REGION_LENGTH__+0x5b0>
						wecker_minuten += 1;
     9a2:	2e 96       	adiw	r28, 0x0e	; 14
     9a4:	8f ad       	ldd	r24, Y+63	; 0x3f
     9a6:	2e 97       	sbiw	r28, 0x0e	; 14
     9a8:	8f 5f       	subi	r24, 0xFF	; 255
     9aa:	2e 96       	adiw	r28, 0x0e	; 14
     9ac:	8f af       	std	Y+63, r24	; 0x3f
     9ae:	2e 97       	sbiw	r28, 0x0e	; 14
					}
					if(wecker_minuten>59){
     9b0:	2e 96       	adiw	r28, 0x0e	; 14
     9b2:	9f ad       	ldd	r25, Y+63	; 0x3f
     9b4:	2e 97       	sbiw	r28, 0x0e	; 14
     9b6:	9c 33       	cpi	r25, 0x3C	; 60
     9b8:	08 f0       	brcs	.+2      	; 0x9bc <__LOCK_REGION_LENGTH__+0x5bc>
     9ba:	4e c5       	rjmp	.+2716   	; 0x1458 <__EEPROM_REGION_LENGTH__+0x458>
     9bc:	99 c5       	rjmp	.+2866   	; 0x14f0 <__EEPROM_REGION_LENGTH__+0x4f0>
				break;
			}
		break;
		
		case 2://Stopwatch
			switch(stop_watch_mini_modes){
     9be:	2f 96       	adiw	r28, 0x0f	; 15
     9c0:	ef ad       	ldd	r30, Y+63	; 0x3f
     9c2:	2f 97       	sbiw	r28, 0x0f	; 15
     9c4:	8e 2f       	mov	r24, r30
     9c6:	90 e0       	ldi	r25, 0x00	; 0
     9c8:	87 30       	cpi	r24, 0x07	; 7
     9ca:	91 05       	cpc	r25, r1
     9cc:	08 f0       	brcs	.+2      	; 0x9d0 <__LOCK_REGION_LENGTH__+0x5d0>
     9ce:	b0 c1       	rjmp	.+864    	; 0xd30 <__LOCK_REGION_LENGTH__+0x930>
     9d0:	fc 01       	movw	r30, r24
     9d2:	88 27       	eor	r24, r24
     9d4:	ee 58       	subi	r30, 0x8E	; 142
     9d6:	ff 4f       	sbci	r31, 0xFF	; 255
     9d8:	8f 4f       	sbci	r24, 0xFF	; 255
     9da:	0c 94 d5 0e 	jmp	0x1daa	; 0x1daa <__tablejump2__>
				case 0: //normal mode no counting
					lcdWriteText(1,0,"%02u:%02u:%02u",stopwatch_minutes,stopwatch_seconds,stopwatch_hundredths);
     9de:	1f 92       	push	r1
     9e0:	61 96       	adiw	r28, 0x11	; 17
     9e2:	ff ad       	ldd	r31, Y+63	; 0x3f
     9e4:	61 97       	sbiw	r28, 0x11	; 17
     9e6:	ff 93       	push	r31
     9e8:	1f 92       	push	r1
     9ea:	62 96       	adiw	r28, 0x12	; 18
     9ec:	2f ad       	ldd	r18, Y+63	; 0x3f
     9ee:	62 97       	sbiw	r28, 0x12	; 18
     9f0:	2f 93       	push	r18
     9f2:	1f 92       	push	r1
     9f4:	69 96       	adiw	r28, 0x19	; 25
     9f6:	3f ad       	ldd	r19, Y+63	; 0x3f
     9f8:	69 97       	sbiw	r28, 0x19	; 25
     9fa:	3f 93       	push	r19
     9fc:	89 e4       	ldi	r24, 0x49	; 73
     9fe:	92 e0       	ldi	r25, 0x02	; 2
     a00:	9f 93       	push	r25
     a02:	8f 93       	push	r24
     a04:	1f 92       	push	r1
     a06:	81 e0       	ldi	r24, 0x01	; 1
     a08:	8f 93       	push	r24
     a0a:	83 d6       	rcall	.+3334   	; 0x1712 <lcdWriteText>
					if(button_A){
     a0c:	0f b6       	in	r0, 0x3f	; 63
     a0e:	f8 94       	cli
     a10:	de bf       	out	0x3e, r29	; 62
     a12:	0f be       	out	0x3f, r0	; 63
     a14:	cd bf       	out	0x3d, r28	; 61
     a16:	14 14       	cp	r1, r4
     a18:	15 04       	cpc	r1, r5
     a1a:	0c f4       	brge	.+2      	; 0xa1e <__LOCK_REGION_LENGTH__+0x61e>
     a1c:	4c c1       	rjmp	.+664    	; 0xcb6 <__LOCK_REGION_LENGTH__+0x8b6>
     a1e:	88 c1       	rjmp	.+784    	; 0xd30 <__LOCK_REGION_LENGTH__+0x930>
						stop_watch_mini_modes = 1;
					}
				break;
				case 1://counting start button A was pressed
						lcdWriteText(1,0,"%02u:%02u:%02u",stopwatch_minutes,stopwatch_seconds,stopwatch_hundredths);
     a20:	1f 92       	push	r1
     a22:	61 96       	adiw	r28, 0x11	; 17
     a24:	9f ad       	ldd	r25, Y+63	; 0x3f
     a26:	61 97       	sbiw	r28, 0x11	; 17
     a28:	9f 93       	push	r25
     a2a:	1f 92       	push	r1
     a2c:	62 96       	adiw	r28, 0x12	; 18
     a2e:	ef ad       	ldd	r30, Y+63	; 0x3f
     a30:	62 97       	sbiw	r28, 0x12	; 18
     a32:	ef 93       	push	r30
     a34:	1f 92       	push	r1
     a36:	69 96       	adiw	r28, 0x19	; 25
     a38:	ff ad       	ldd	r31, Y+63	; 0x3f
     a3a:	69 97       	sbiw	r28, 0x19	; 25
     a3c:	ff 93       	push	r31
     a3e:	89 e4       	ldi	r24, 0x49	; 73
     a40:	92 e0       	ldi	r25, 0x02	; 2
     a42:	9f 93       	push	r25
     a44:	8f 93       	push	r24
     a46:	1f 92       	push	r1
     a48:	81 e0       	ldi	r24, 0x01	; 1
     a4a:	8f 93       	push	r24
						if((getSystemTimeMs()-clock) >=10){
     a4c:	62 d6       	rcall	.+3268   	; 0x1712 <lcdWriteText>
     a4e:	6a d5       	rcall	.+2772   	; 0x1524 <getSystemTimeMs>
     a50:	ae ac       	ldd	r10, Y+62	; 0x3e
     a52:	bf ac       	ldd	r11, Y+63	; 0x3f
     a54:	21 96       	adiw	r28, 0x01	; 1
     a56:	cf ac       	ldd	r12, Y+63	; 0x3f
     a58:	21 97       	sbiw	r28, 0x01	; 1
     a5a:	22 96       	adiw	r28, 0x02	; 2
     a5c:	df ac       	ldd	r13, Y+63	; 0x3f
     a5e:	22 97       	sbiw	r28, 0x02	; 2
     a60:	23 96       	adiw	r28, 0x03	; 3
     a62:	ef ac       	ldd	r14, Y+63	; 0x3f
     a64:	23 97       	sbiw	r28, 0x03	; 3
     a66:	24 96       	adiw	r28, 0x04	; 4
     a68:	ff ac       	ldd	r15, Y+63	; 0x3f
     a6a:	24 97       	sbiw	r28, 0x04	; 4
     a6c:	25 96       	adiw	r28, 0x05	; 5
     a6e:	0f ad       	ldd	r16, Y+63	; 0x3f
     a70:	25 97       	sbiw	r28, 0x05	; 5
     a72:	26 96       	adiw	r28, 0x06	; 6
     a74:	1f ad       	ldd	r17, Y+63	; 0x3f
     a76:	26 97       	sbiw	r28, 0x06	; 6
     a78:	0e 94 47 0f 	call	0x1e8e	; 0x1e8e <__subdi3>
     a7c:	0f b6       	in	r0, 0x3f	; 63
     a7e:	f8 94       	cli
     a80:	de bf       	out	0x3e, r29	; 62
     a82:	0f be       	out	0x3f, r0	; 63
     a84:	cd bf       	out	0x3d, r28	; 61
     a86:	a9 e0       	ldi	r26, 0x09	; 9
     a88:	0e 94 50 0f 	call	0x1ea0	; 0x1ea0 <__cmpdi2_s8>
     a8c:	e9 f0       	breq	.+58     	; 0xac8 <__LOCK_REGION_LENGTH__+0x6c8>
							stopwatch_hundredths += 1;
     a8e:	e0 f0       	brcs	.+56     	; 0xac8 <__LOCK_REGION_LENGTH__+0x6c8>
     a90:	61 96       	adiw	r28, 0x11	; 17
     a92:	ff ad       	ldd	r31, Y+63	; 0x3f
     a94:	61 97       	sbiw	r28, 0x11	; 17
     a96:	ff 5f       	subi	r31, 0xFF	; 255
     a98:	61 96       	adiw	r28, 0x11	; 17
     a9a:	ff af       	std	Y+63, r31	; 0x3f
							clock = getSystemTimeMs();
     a9c:	61 97       	sbiw	r28, 0x11	; 17
     a9e:	42 d5       	rcall	.+2692   	; 0x1524 <getSystemTimeMs>
     aa0:	2e af       	std	Y+62, r18	; 0x3e
     aa2:	3f af       	std	Y+63, r19	; 0x3f
     aa4:	21 96       	adiw	r28, 0x01	; 1
     aa6:	4f af       	std	Y+63, r20	; 0x3f
     aa8:	21 97       	sbiw	r28, 0x01	; 1
     aaa:	22 96       	adiw	r28, 0x02	; 2
     aac:	5f af       	std	Y+63, r21	; 0x3f
     aae:	22 97       	sbiw	r28, 0x02	; 2
     ab0:	23 96       	adiw	r28, 0x03	; 3
     ab2:	6f af       	std	Y+63, r22	; 0x3f
     ab4:	23 97       	sbiw	r28, 0x03	; 3
     ab6:	24 96       	adiw	r28, 0x04	; 4
     ab8:	7f af       	std	Y+63, r23	; 0x3f
     aba:	24 97       	sbiw	r28, 0x04	; 4
     abc:	25 96       	adiw	r28, 0x05	; 5
     abe:	8f af       	std	Y+63, r24	; 0x3f
     ac0:	25 97       	sbiw	r28, 0x05	; 5
     ac2:	26 96       	adiw	r28, 0x06	; 6
     ac4:	9f af       	std	Y+63, r25	; 0x3f
     ac6:	26 97       	sbiw	r28, 0x06	; 6
						}
						if(stopwatch_hundredths>99){
     ac8:	61 96       	adiw	r28, 0x11	; 17
     aca:	2f ad       	ldd	r18, Y+63	; 0x3f
     acc:	61 97       	sbiw	r28, 0x11	; 17
     ace:	24 36       	cpi	r18, 0x64	; 100
     ad0:	50 f0       	brcs	.+20     	; 0xae6 <__LOCK_REGION_LENGTH__+0x6e6>
							stopwatch_hundredths = 0;
							stopwatch_seconds += 1;
     ad2:	62 96       	adiw	r28, 0x12	; 18
     ad4:	3f ad       	ldd	r19, Y+63	; 0x3f
     ad6:	62 97       	sbiw	r28, 0x12	; 18
     ad8:	3f 5f       	subi	r19, 0xFF	; 255
     ada:	62 96       	adiw	r28, 0x12	; 18
     adc:	3f af       	std	Y+63, r19	; 0x3f
     ade:	62 97       	sbiw	r28, 0x12	; 18
						if((getSystemTimeMs()-clock) >=10){
							stopwatch_hundredths += 1;
							clock = getSystemTimeMs();
						}
						if(stopwatch_hundredths>99){
							stopwatch_hundredths = 0;
     ae0:	61 96       	adiw	r28, 0x11	; 17
     ae2:	1f ae       	std	Y+63, r1	; 0x3f
     ae4:	61 97       	sbiw	r28, 0x11	; 17
							stopwatch_seconds += 1;
						}
						if(stopwatch_seconds>59){
     ae6:	62 96       	adiw	r28, 0x12	; 18
     ae8:	5f ad       	ldd	r21, Y+63	; 0x3f
     aea:	62 97       	sbiw	r28, 0x12	; 18
     aec:	5c 33       	cpi	r21, 0x3C	; 60
     aee:	50 f0       	brcs	.+20     	; 0xb04 <__LOCK_REGION_LENGTH__+0x704>
							stopwatch_seconds = 0;
							stopwatch_minutes += 1;
     af0:	69 96       	adiw	r28, 0x19	; 25
     af2:	6f ad       	ldd	r22, Y+63	; 0x3f
     af4:	69 97       	sbiw	r28, 0x19	; 25
     af6:	6f 5f       	subi	r22, 0xFF	; 255
     af8:	69 96       	adiw	r28, 0x19	; 25
     afa:	6f af       	std	Y+63, r22	; 0x3f
     afc:	69 97       	sbiw	r28, 0x19	; 25
						if(stopwatch_hundredths>99){
							stopwatch_hundredths = 0;
							stopwatch_seconds += 1;
						}
						if(stopwatch_seconds>59){
							stopwatch_seconds = 0;
     afe:	62 96       	adiw	r28, 0x12	; 18
     b00:	1f ae       	std	Y+63, r1	; 0x3f
     b02:	62 97       	sbiw	r28, 0x12	; 18
							stopwatch_minutes += 1;
						}
						if(button_A){
     b04:	14 14       	cp	r1, r4
     b06:	15 04       	cpc	r1, r5
     b08:	24 f4       	brge	.+8      	; 0xb12 <__LOCK_REGION_LENGTH__+0x712>
							stop_watch_mini_modes = 2;
     b0a:	82 e0       	ldi	r24, 0x02	; 2
     b0c:	2f 96       	adiw	r28, 0x0f	; 15
     b0e:	8f af       	std	Y+63, r24	; 0x3f
     b10:	2f 97       	sbiw	r28, 0x0f	; 15
						}
						if((stopwatch_hundredths == 99) && (stopwatch_seconds == 59) && (stopwatch_minutes == 59)){
     b12:	61 96       	adiw	r28, 0x11	; 17
     b14:	9f ad       	ldd	r25, Y+63	; 0x3f
     b16:	61 97       	sbiw	r28, 0x11	; 17
     b18:	93 36       	cpi	r25, 0x63	; 99
     b1a:	71 f4       	brne	.+28     	; 0xb38 <__LOCK_REGION_LENGTH__+0x738>
     b1c:	62 96       	adiw	r28, 0x12	; 18
     b1e:	ef ad       	ldd	r30, Y+63	; 0x3f
     b20:	62 97       	sbiw	r28, 0x12	; 18
     b22:	eb 33       	cpi	r30, 0x3B	; 59
     b24:	49 f4       	brne	.+18     	; 0xb38 <__LOCK_REGION_LENGTH__+0x738>
     b26:	69 96       	adiw	r28, 0x19	; 25
     b28:	ff ad       	ldd	r31, Y+63	; 0x3f
     b2a:	69 97       	sbiw	r28, 0x19	; 25
     b2c:	fb 33       	cpi	r31, 0x3B	; 59
     b2e:	21 f4       	brne	.+8      	; 0xb38 <__LOCK_REGION_LENGTH__+0x738>
							stop_watch_mini_modes = 3;
     b30:	23 e0       	ldi	r18, 0x03	; 3
     b32:	2f 96       	adiw	r28, 0x0f	; 15
     b34:	2f af       	std	Y+63, r18	; 0x3f
     b36:	2f 97       	sbiw	r28, 0x0f	; 15
						}
						if(button_L){
     b38:	12 14       	cp	r1, r2
     b3a:	13 04       	cpc	r1, r3
     b3c:	0c f4       	brge	.+2      	; 0xb40 <__LOCK_REGION_LENGTH__+0x740>
     b3e:	c0 c0       	rjmp	.+384    	; 0xcc0 <__LOCK_REGION_LENGTH__+0x8c0>
     b40:	f7 c0       	rjmp	.+494    	; 0xd30 <__LOCK_REGION_LENGTH__+0x930>
							clock_light = 1;
						}
				break;
				
				case 2: //counting stop
					if(button_A){
     b42:	14 14       	cp	r1, r4
     b44:	15 04       	cpc	r1, r5
						stop_watch_mini_modes = 1;
     b46:	24 f4       	brge	.+8      	; 0xb50 <__LOCK_REGION_LENGTH__+0x750>
     b48:	31 e0       	ldi	r19, 0x01	; 1
     b4a:	2f 96       	adiw	r28, 0x0f	; 15
     b4c:	3f af       	std	Y+63, r19	; 0x3f
					}
					if(button_L){
     b4e:	2f 97       	sbiw	r28, 0x0f	; 15
     b50:	12 14       	cp	r1, r2
     b52:	13 04       	cpc	r1, r3
     b54:	0c f4       	brge	.+2      	; 0xb58 <__LOCK_REGION_LENGTH__+0x758>
     b56:	bb c0       	rjmp	.+374    	; 0xcce <__LOCK_REGION_LENGTH__+0x8ce>
						clock_light = 1;
					}
				break;
				
				case 3: //max amount of timer over
					if(button_L){
     b58:	eb c0       	rjmp	.+470    	; 0xd30 <__LOCK_REGION_LENGTH__+0x930>
     b5a:	12 14       	cp	r1, r2
     b5c:	13 04       	cpc	r1, r3
     b5e:	0c f4       	brge	.+2      	; 0xb62 <__LOCK_REGION_LENGTH__+0x762>
     b60:	c5 c0       	rjmp	.+394    	; 0xcec <__LOCK_REGION_LENGTH__+0x8ec>
						clock_light = 1;
					}					
				break;
				
				case 4: //stop time but still counting
						if((getSystemTimeMs()-clock) >=10){
     b62:	e6 c0       	rjmp	.+460    	; 0xd30 <__LOCK_REGION_LENGTH__+0x930>
     b64:	df d4       	rcall	.+2494   	; 0x1524 <getSystemTimeMs>
     b66:	ae ac       	ldd	r10, Y+62	; 0x3e
     b68:	bf ac       	ldd	r11, Y+63	; 0x3f
     b6a:	21 96       	adiw	r28, 0x01	; 1
     b6c:	cf ac       	ldd	r12, Y+63	; 0x3f
     b6e:	21 97       	sbiw	r28, 0x01	; 1
     b70:	22 96       	adiw	r28, 0x02	; 2
     b72:	df ac       	ldd	r13, Y+63	; 0x3f
     b74:	22 97       	sbiw	r28, 0x02	; 2
     b76:	23 96       	adiw	r28, 0x03	; 3
     b78:	ef ac       	ldd	r14, Y+63	; 0x3f
     b7a:	23 97       	sbiw	r28, 0x03	; 3
     b7c:	24 96       	adiw	r28, 0x04	; 4
     b7e:	ff ac       	ldd	r15, Y+63	; 0x3f
     b80:	24 97       	sbiw	r28, 0x04	; 4
     b82:	25 96       	adiw	r28, 0x05	; 5
     b84:	0f ad       	ldd	r16, Y+63	; 0x3f
     b86:	25 97       	sbiw	r28, 0x05	; 5
     b88:	26 96       	adiw	r28, 0x06	; 6
     b8a:	1f ad       	ldd	r17, Y+63	; 0x3f
     b8c:	26 97       	sbiw	r28, 0x06	; 6
     b8e:	0e 94 47 0f 	call	0x1e8e	; 0x1e8e <__subdi3>
     b92:	a9 e0       	ldi	r26, 0x09	; 9
     b94:	0e 94 50 0f 	call	0x1ea0	; 0x1ea0 <__cmpdi2_s8>
     b98:	e9 f0       	breq	.+58     	; 0xbd4 <__LOCK_REGION_LENGTH__+0x7d4>
							stopwatch_hundredths += 1;
     b9a:	e0 f0       	brcs	.+56     	; 0xbd4 <__LOCK_REGION_LENGTH__+0x7d4>
     b9c:	61 96       	adiw	r28, 0x11	; 17
     b9e:	5f ad       	ldd	r21, Y+63	; 0x3f
     ba0:	61 97       	sbiw	r28, 0x11	; 17
     ba2:	5f 5f       	subi	r21, 0xFF	; 255
     ba4:	61 96       	adiw	r28, 0x11	; 17
     ba6:	5f af       	std	Y+63, r21	; 0x3f
							clock = getSystemTimeMs();
     ba8:	61 97       	sbiw	r28, 0x11	; 17
     baa:	bc d4       	rcall	.+2424   	; 0x1524 <getSystemTimeMs>
     bac:	2e af       	std	Y+62, r18	; 0x3e
     bae:	3f af       	std	Y+63, r19	; 0x3f
     bb0:	21 96       	adiw	r28, 0x01	; 1
     bb2:	4f af       	std	Y+63, r20	; 0x3f
     bb4:	21 97       	sbiw	r28, 0x01	; 1
     bb6:	22 96       	adiw	r28, 0x02	; 2
     bb8:	5f af       	std	Y+63, r21	; 0x3f
     bba:	22 97       	sbiw	r28, 0x02	; 2
     bbc:	23 96       	adiw	r28, 0x03	; 3
     bbe:	6f af       	std	Y+63, r22	; 0x3f
     bc0:	23 97       	sbiw	r28, 0x03	; 3
     bc2:	24 96       	adiw	r28, 0x04	; 4
     bc4:	7f af       	std	Y+63, r23	; 0x3f
     bc6:	24 97       	sbiw	r28, 0x04	; 4
     bc8:	25 96       	adiw	r28, 0x05	; 5
     bca:	8f af       	std	Y+63, r24	; 0x3f
     bcc:	25 97       	sbiw	r28, 0x05	; 5
     bce:	26 96       	adiw	r28, 0x06	; 6
     bd0:	9f af       	std	Y+63, r25	; 0x3f
     bd2:	26 97       	sbiw	r28, 0x06	; 6
						}
						if(stopwatch_hundredths>99){
     bd4:	61 96       	adiw	r28, 0x11	; 17
     bd6:	6f ad       	ldd	r22, Y+63	; 0x3f
     bd8:	61 97       	sbiw	r28, 0x11	; 17
     bda:	64 36       	cpi	r22, 0x64	; 100
     bdc:	50 f0       	brcs	.+20     	; 0xbf2 <__LOCK_REGION_LENGTH__+0x7f2>
							stopwatch_hundredths = 0;
							stopwatch_seconds += 1;
     bde:	62 96       	adiw	r28, 0x12	; 18
     be0:	8f ad       	ldd	r24, Y+63	; 0x3f
     be2:	62 97       	sbiw	r28, 0x12	; 18
     be4:	8f 5f       	subi	r24, 0xFF	; 255
     be6:	62 96       	adiw	r28, 0x12	; 18
     be8:	8f af       	std	Y+63, r24	; 0x3f
     bea:	62 97       	sbiw	r28, 0x12	; 18
						if((getSystemTimeMs()-clock) >=10){
							stopwatch_hundredths += 1;
							clock = getSystemTimeMs();
						}
						if(stopwatch_hundredths>99){
							stopwatch_hundredths = 0;
     bec:	61 96       	adiw	r28, 0x11	; 17
     bee:	1f ae       	std	Y+63, r1	; 0x3f
     bf0:	61 97       	sbiw	r28, 0x11	; 17
							stopwatch_seconds += 1;
						}
						if(stopwatch_seconds>59){
     bf2:	62 96       	adiw	r28, 0x12	; 18
     bf4:	9f ad       	ldd	r25, Y+63	; 0x3f
     bf6:	62 97       	sbiw	r28, 0x12	; 18
     bf8:	9c 33       	cpi	r25, 0x3C	; 60
     bfa:	50 f0       	brcs	.+20     	; 0xc10 <__LOCK_REGION_LENGTH__+0x810>
							stopwatch_seconds = 0;
							stopwatch_minutes += 1;
     bfc:	69 96       	adiw	r28, 0x19	; 25
     bfe:	ef ad       	ldd	r30, Y+63	; 0x3f
     c00:	69 97       	sbiw	r28, 0x19	; 25
     c02:	ef 5f       	subi	r30, 0xFF	; 255
     c04:	69 96       	adiw	r28, 0x19	; 25
     c06:	ef af       	std	Y+63, r30	; 0x3f
     c08:	69 97       	sbiw	r28, 0x19	; 25
						if(stopwatch_hundredths>99){
							stopwatch_hundredths = 0;
							stopwatch_seconds += 1;
						}
						if(stopwatch_seconds>59){
							stopwatch_seconds = 0;
     c0a:	62 96       	adiw	r28, 0x12	; 18
     c0c:	1f ae       	std	Y+63, r1	; 0x3f
     c0e:	62 97       	sbiw	r28, 0x12	; 18
							stopwatch_minutes += 1;
						}
						if(button_A){
     c10:	14 14       	cp	r1, r4
     c12:	15 04       	cpc	r1, r5
     c14:	24 f4       	brge	.+8      	; 0xc1e <__LOCK_REGION_LENGTH__+0x81e>
							stop_watch_mini_modes = 2;
     c16:	f2 e0       	ldi	r31, 0x02	; 2
     c18:	2f 96       	adiw	r28, 0x0f	; 15
     c1a:	ff af       	std	Y+63, r31	; 0x3f
     c1c:	2f 97       	sbiw	r28, 0x0f	; 15
						}
						if((stopwatch_hundredths == 99) && (stopwatch_seconds == 59) && (stopwatch_minutes == 59)){
     c1e:	61 96       	adiw	r28, 0x11	; 17
     c20:	2f ad       	ldd	r18, Y+63	; 0x3f
     c22:	61 97       	sbiw	r28, 0x11	; 17
     c24:	23 36       	cpi	r18, 0x63	; 99
     c26:	71 f4       	brne	.+28     	; 0xc44 <__LOCK_REGION_LENGTH__+0x844>
     c28:	62 96       	adiw	r28, 0x12	; 18
     c2a:	3f ad       	ldd	r19, Y+63	; 0x3f
     c2c:	62 97       	sbiw	r28, 0x12	; 18
     c2e:	3b 33       	cpi	r19, 0x3B	; 59
     c30:	49 f4       	brne	.+18     	; 0xc44 <__LOCK_REGION_LENGTH__+0x844>
     c32:	69 96       	adiw	r28, 0x19	; 25
     c34:	5f ad       	ldd	r21, Y+63	; 0x3f
     c36:	69 97       	sbiw	r28, 0x19	; 25
     c38:	5b 33       	cpi	r21, 0x3B	; 59
     c3a:	21 f4       	brne	.+8      	; 0xc44 <__LOCK_REGION_LENGTH__+0x844>
							stop_watch_mini_modes = 3;
     c3c:	63 e0       	ldi	r22, 0x03	; 3
     c3e:	2f 96       	adiw	r28, 0x0f	; 15
     c40:	6f af       	std	Y+63, r22	; 0x3f
     c42:	2f 97       	sbiw	r28, 0x0f	; 15
						}
						if(button_L){
     c44:	12 14       	cp	r1, r2
     c46:	13 04       	cpc	r1, r3
     c48:	34 f4       	brge	.+12     	; 0xc56 <__LOCK_REGION_LENGTH__+0x856>
							stop_watch_mini_modes = 1;
     c4a:	81 e0       	ldi	r24, 0x01	; 1
     c4c:	2f 96       	adiw	r28, 0x0f	; 15
     c4e:	8f af       	std	Y+63, r24	; 0x3f
     c50:	2f 97       	sbiw	r28, 0x0f	; 15
							clock_light = 1;
     c52:	77 24       	eor	r7, r7
     c54:	73 94       	inc	r7
						}
						if(button_A){
     c56:	14 14       	cp	r1, r4
     c58:	15 04       	cpc	r1, r5
     c5a:	0c f4       	brge	.+2      	; 0xc5e <__LOCK_REGION_LENGTH__+0x85e>
     c5c:	56 c0       	rjmp	.+172    	; 0xd0a <__LOCK_REGION_LENGTH__+0x90a>
     c5e:	68 c0       	rjmp	.+208    	; 0xd30 <__LOCK_REGION_LENGTH__+0x930>
							
						}
				break;
				
				case 5: //
					if(button_L){
     c60:	12 14       	cp	r1, r2
     c62:	13 04       	cpc	r1, r3
     c64:	0c f0       	brlt	.+2      	; 0xc68 <__LOCK_REGION_LENGTH__+0x868>
     c66:	64 c0       	rjmp	.+200    	; 0xd30 <__LOCK_REGION_LENGTH__+0x930>
						lcdWriteText(1,0,"%02u:%02u:%02u",stopwatch_minutes,stopwatch_seconds,stopwatch_hundredths);
     c68:	1f 92       	push	r1
     c6a:	61 96       	adiw	r28, 0x11	; 17
     c6c:	9f ad       	ldd	r25, Y+63	; 0x3f
     c6e:	61 97       	sbiw	r28, 0x11	; 17
     c70:	9f 93       	push	r25
     c72:	1f 92       	push	r1
     c74:	62 96       	adiw	r28, 0x12	; 18
     c76:	ef ad       	ldd	r30, Y+63	; 0x3f
     c78:	62 97       	sbiw	r28, 0x12	; 18
     c7a:	ef 93       	push	r30
     c7c:	1f 92       	push	r1
     c7e:	69 96       	adiw	r28, 0x19	; 25
     c80:	ff ad       	ldd	r31, Y+63	; 0x3f
     c82:	69 97       	sbiw	r28, 0x19	; 25
     c84:	ff 93       	push	r31
     c86:	89 e4       	ldi	r24, 0x49	; 73
     c88:	92 e0       	ldi	r25, 0x02	; 2
     c8a:	9f 93       	push	r25
     c8c:	8f 93       	push	r24
     c8e:	1f 92       	push	r1
     c90:	81 e0       	ldi	r24, 0x01	; 1
     c92:	8f 93       	push	r24
     c94:	3e d5       	rcall	.+2684   	; 0x1712 <lcdWriteText>
     c96:	0f b6       	in	r0, 0x3f	; 63
     c98:	f8 94       	cli
     c9a:	de bf       	out	0x3e, r29	; 62
     c9c:	0f be       	out	0x3f, r0	; 63
     c9e:	cd bf       	out	0x3d, r28	; 61
						clock_light = 1;
						stop_watch_mini_modes = 6;
     ca0:	36 e0       	ldi	r19, 0x06	; 6
     ca2:	2f 96       	adiw	r28, 0x0f	; 15
     ca4:	3f af       	std	Y+63, r19	; 0x3f
     ca6:	2f 97       	sbiw	r28, 0x0f	; 15
				break;
				
				case 5: //
					if(button_L){
						lcdWriteText(1,0,"%02u:%02u:%02u",stopwatch_minutes,stopwatch_seconds,stopwatch_hundredths);
						clock_light = 1;
     ca8:	77 24       	eor	r7, r7
     caa:	73 94       	inc	r7
     cac:	41 c0       	rjmp	.+130    	; 0xd30 <__LOCK_REGION_LENGTH__+0x930>
						stop_watch_mini_modes = 6;
					}
				break;
				
				case 6:
					if(button_L){
     cae:	12 14       	cp	r1, r2
     cb0:	13 04       	cpc	r1, r3
     cb2:	84 f1       	brlt	.+96     	; 0xd14 <__LOCK_REGION_LENGTH__+0x914>
     cb4:	3d c0       	rjmp	.+122    	; 0xd30 <__LOCK_REGION_LENGTH__+0x930>
		case 2://Stopwatch
			switch(stop_watch_mini_modes){
				case 0: //normal mode no counting
					lcdWriteText(1,0,"%02u:%02u:%02u",stopwatch_minutes,stopwatch_seconds,stopwatch_hundredths);
					if(button_A){
						stop_watch_mini_modes = 1;
     cb6:	51 e0       	ldi	r21, 0x01	; 1
     cb8:	2f 96       	adiw	r28, 0x0f	; 15
     cba:	5f af       	std	Y+63, r21	; 0x3f
     cbc:	2f 97       	sbiw	r28, 0x0f	; 15
     cbe:	38 c0       	rjmp	.+112    	; 0xd30 <__LOCK_REGION_LENGTH__+0x930>
						}
						if((stopwatch_hundredths == 99) && (stopwatch_seconds == 59) && (stopwatch_minutes == 59)){
							stop_watch_mini_modes = 3;
						}
						if(button_L){
							stop_watch_mini_modes = 4;
     cc0:	64 e0       	ldi	r22, 0x04	; 4
     cc2:	2f 96       	adiw	r28, 0x0f	; 15
     cc4:	6f af       	std	Y+63, r22	; 0x3f
     cc6:	2f 97       	sbiw	r28, 0x0f	; 15
							clock_light = 1;
     cc8:	77 24       	eor	r7, r7
     cca:	73 94       	inc	r7
     ccc:	31 c0       	rjmp	.+98     	; 0xd30 <__LOCK_REGION_LENGTH__+0x930>
				case 2: //counting stop
					if(button_A){
						stop_watch_mini_modes = 1;
					}
					if(button_L){
						stop_watch_mini_modes = 0;
     cce:	2f 96       	adiw	r28, 0x0f	; 15
     cd0:	1f ae       	std	Y+63, r1	; 0x3f
     cd2:	2f 97       	sbiw	r28, 0x0f	; 15
						stopwatch_seconds = 0;
						stopwatch_minutes = 0;
     cd4:	69 96       	adiw	r28, 0x19	; 25
     cd6:	1f ae       	std	Y+63, r1	; 0x3f
     cd8:	69 97       	sbiw	r28, 0x19	; 25
					if(button_A){
						stop_watch_mini_modes = 1;
					}
					if(button_L){
						stop_watch_mini_modes = 0;
						stopwatch_seconds = 0;
     cda:	62 96       	adiw	r28, 0x12	; 18
     cdc:	1f ae       	std	Y+63, r1	; 0x3f
     cde:	62 97       	sbiw	r28, 0x12	; 18
						stopwatch_minutes = 0;
						stopwatch_hundredths = 0;
     ce0:	61 96       	adiw	r28, 0x11	; 17
     ce2:	1f ae       	std	Y+63, r1	; 0x3f
     ce4:	61 97       	sbiw	r28, 0x11	; 17
						clock_light = 1;
     ce6:	77 24       	eor	r7, r7
     ce8:	73 94       	inc	r7
     cea:	22 c0       	rjmp	.+68     	; 0xd30 <__LOCK_REGION_LENGTH__+0x930>
					}
				break;
				
				case 3: //max amount of timer over
					if(button_L){
						stop_watch_mini_modes = 0;
     cec:	2f 96       	adiw	r28, 0x0f	; 15
     cee:	1f ae       	std	Y+63, r1	; 0x3f
     cf0:	2f 97       	sbiw	r28, 0x0f	; 15
						stopwatch_seconds = 0;
						stopwatch_minutes = 0;
     cf2:	69 96       	adiw	r28, 0x19	; 25
     cf4:	1f ae       	std	Y+63, r1	; 0x3f
     cf6:	69 97       	sbiw	r28, 0x19	; 25
				break;
				
				case 3: //max amount of timer over
					if(button_L){
						stop_watch_mini_modes = 0;
						stopwatch_seconds = 0;
     cf8:	62 96       	adiw	r28, 0x12	; 18
     cfa:	1f ae       	std	Y+63, r1	; 0x3f
     cfc:	62 97       	sbiw	r28, 0x12	; 18
						stopwatch_minutes = 0;
						stopwatch_hundredths = 0;
     cfe:	61 96       	adiw	r28, 0x11	; 17
     d00:	1f ae       	std	Y+63, r1	; 0x3f
     d02:	61 97       	sbiw	r28, 0x11	; 17
						clock_light = 1;
     d04:	77 24       	eor	r7, r7
     d06:	73 94       	inc	r7
     d08:	13 c0       	rjmp	.+38     	; 0xd30 <__LOCK_REGION_LENGTH__+0x930>
						if(button_L){
							stop_watch_mini_modes = 1;
							clock_light = 1;
						}
						if(button_A){
							stop_watch_mini_modes = 5;
     d0a:	85 e0       	ldi	r24, 0x05	; 5
     d0c:	2f 96       	adiw	r28, 0x0f	; 15
     d0e:	8f af       	std	Y+63, r24	; 0x3f
     d10:	2f 97       	sbiw	r28, 0x0f	; 15
     d12:	0e c0       	rjmp	.+28     	; 0xd30 <__LOCK_REGION_LENGTH__+0x930>
				break;
				
				case 6:
					if(button_L){
						clock_light = 1;
						stop_watch_mini_modes = 0;
     d14:	2f 96       	adiw	r28, 0x0f	; 15
     d16:	1f ae       	std	Y+63, r1	; 0x3f
     d18:	2f 97       	sbiw	r28, 0x0f	; 15
						stopwatch_seconds = 0;
						stopwatch_minutes = 0;
     d1a:	69 96       	adiw	r28, 0x19	; 25
     d1c:	1f ae       	std	Y+63, r1	; 0x3f
     d1e:	69 97       	sbiw	r28, 0x19	; 25
				
				case 6:
					if(button_L){
						clock_light = 1;
						stop_watch_mini_modes = 0;
						stopwatch_seconds = 0;
     d20:	62 96       	adiw	r28, 0x12	; 18
     d22:	1f ae       	std	Y+63, r1	; 0x3f
     d24:	62 97       	sbiw	r28, 0x12	; 18
						stopwatch_minutes = 0;
						stopwatch_hundredths = 0;
     d26:	61 96       	adiw	r28, 0x11	; 17
     d28:	1f ae       	std	Y+63, r1	; 0x3f
     d2a:	61 97       	sbiw	r28, 0x11	; 17
					}
				break;
				
				case 6:
					if(button_L){
						clock_light = 1;
     d2c:	77 24       	eor	r7, r7
     d2e:	73 94       	inc	r7
						stopwatch_minutes = 0;
						stopwatch_hundredths = 0;
					}
				break;
			}
			if(button_c){
     d30:	eb ad       	ldd	r30, Y+59	; 0x3b
     d32:	fc ad       	ldd	r31, Y+60	; 0x3c
     d34:	1e 16       	cp	r1, r30
     d36:	1f 06       	cpc	r1, r31
     d38:	0c f0       	brlt	.+2      	; 0xd3c <__LOCK_REGION_LENGTH__+0x93c>
				clock_modes += 1;
     d3a:	da c3       	rjmp	.+1972   	; 0x14f0 <__EEPROM_REGION_LENGTH__+0x4f0>
     d3c:	83 94       	inc	r8
			}
		break;
		
		case 3://Zeitänderungen
			daytime = 5;
			lcdWriteText(0,0,"%s",AM_PM[daytime]);
     d3e:	d8 c3       	rjmp	.+1968   	; 0x14f0 <__EEPROM_REGION_LENGTH__+0x4f0>
     d40:	8c 85       	ldd	r24, Y+12	; 0x0c
     d42:	8f 93       	push	r24
     d44:	8b 85       	ldd	r24, Y+11	; 0x0b
     d46:	8f 93       	push	r24
     d48:	85 e3       	ldi	r24, 0x35	; 53
     d4a:	92 e0       	ldi	r25, 0x02	; 2
     d4c:	9f 93       	push	r25
     d4e:	8f 93       	push	r24
     d50:	1f 92       	push	r1
     d52:	1f 92       	push	r1
     d54:	de d4       	rcall	.+2492   	; 0x1712 <lcdWriteText>
			if(!entry_flag){
     d56:	0f 90       	pop	r0
     d58:	0f 90       	pop	r0
     d5a:	0f 90       	pop	r0
     d5c:	0f 90       	pop	r0
     d5e:	0f 90       	pop	r0
     d60:	0f 90       	pop	r0
     d62:	60 96       	adiw	r28, 0x10	; 16
     d64:	ff ad       	ldd	r31, Y+63	; 0x3f
     d66:	60 97       	sbiw	r28, 0x10	; 16
     d68:	f1 11       	cpse	r31, r1
     d6a:	3d c0       	rjmp	.+122    	; 0xde6 <__LOCK_REGION_LENGTH__+0x9e6>
				entry_flag = 1;
				lcdWriteText(0,3,"%s",week_days[day_of_the_week]);
     d6c:	2b 96       	adiw	r28, 0x0b	; 11
     d6e:	2f ad       	ldd	r18, Y+63	; 0x3f
     d70:	2b 97       	sbiw	r28, 0x0b	; 11
     d72:	e2 2f       	mov	r30, r18
     d74:	f0 e0       	ldi	r31, 0x00	; 0
     d76:	ee 0f       	add	r30, r30
     d78:	ff 1f       	adc	r31, r31
     d7a:	81 e0       	ldi	r24, 0x01	; 1
     d7c:	90 e0       	ldi	r25, 0x00	; 0
     d7e:	8c 0f       	add	r24, r28
     d80:	9d 1f       	adc	r25, r29
     d82:	e8 0f       	add	r30, r24
     d84:	f9 1f       	adc	r31, r25
     d86:	85 85       	ldd	r24, Z+13	; 0x0d
     d88:	8f 93       	push	r24
     d8a:	84 85       	ldd	r24, Z+12	; 0x0c
     d8c:	8f 93       	push	r24
     d8e:	85 e3       	ldi	r24, 0x35	; 53
     d90:	92 e0       	ldi	r25, 0x02	; 2
     d92:	9f 93       	push	r25
     d94:	8f 93       	push	r24
     d96:	83 e0       	ldi	r24, 0x03	; 3
     d98:	8f 93       	push	r24
     d9a:	1f 92       	push	r1
     d9c:	ba d4       	rcall	.+2420   	; 0x1712 <lcdWriteText>
     d9e:	0f 90       	pop	r0
     da0:	0f 90       	pop	r0
     da2:	0f 90       	pop	r0
     da4:	0f 90       	pop	r0
     da6:	0f 90       	pop	r0
     da8:	0f 90       	pop	r0
				zwischenspeicher_sekunden = seconds;
				zwischenspeicher_minuten = minutes;
				zwischenspeicher_stunden = hour_24h;
				zwischenspeicher_datum = date_day;
				zwischenspeicher_wochentag = day_of_the_week;
     daa:	2b 96       	adiw	r28, 0x0b	; 11
     dac:	9f ad       	ldd	r25, Y+63	; 0x3f
     dae:	2b 97       	sbiw	r28, 0x0b	; 11
     db0:	68 96       	adiw	r28, 0x18	; 24
     db2:	9f af       	std	Y+63, r25	; 0x3f
     db4:	68 97       	sbiw	r28, 0x18	; 24
				entry_flag = 1;
				lcdWriteText(0,3,"%s",week_days[day_of_the_week]);
				zwischenspeicher_sekunden = seconds;
				zwischenspeicher_minuten = minutes;
				zwischenspeicher_stunden = hour_24h;
				zwischenspeicher_datum = date_day;
     db6:	e9 a9       	ldd	r30, Y+49	; 0x31
     db8:	67 96       	adiw	r28, 0x17	; 23
     dba:	ef af       	std	Y+63, r30	; 0x3f
     dbc:	67 97       	sbiw	r28, 0x17	; 23
				zwischenspeicher_wochentag = day_of_the_week;
				zwischenspeicher_monate = month;
     dbe:	fb a5       	ldd	r31, Y+43	; 0x2b
     dc0:	66 96       	adiw	r28, 0x16	; 22
     dc2:	ff af       	std	Y+63, r31	; 0x3f
     dc4:	66 97       	sbiw	r28, 0x16	; 22
			if(!entry_flag){
				entry_flag = 1;
				lcdWriteText(0,3,"%s",week_days[day_of_the_week]);
				zwischenspeicher_sekunden = seconds;
				zwischenspeicher_minuten = minutes;
				zwischenspeicher_stunden = hour_24h;
     dc6:	2e a5       	ldd	r18, Y+46	; 0x2e
     dc8:	63 96       	adiw	r28, 0x13	; 19
     dca:	2f af       	std	Y+63, r18	; 0x3f
     dcc:	63 97       	sbiw	r28, 0x13	; 19
			lcdWriteText(0,0,"%s",AM_PM[daytime]);
			if(!entry_flag){
				entry_flag = 1;
				lcdWriteText(0,3,"%s",week_days[day_of_the_week]);
				zwischenspeicher_sekunden = seconds;
				zwischenspeicher_minuten = minutes;
     dce:	3d a5       	ldd	r19, Y+45	; 0x2d
     dd0:	65 96       	adiw	r28, 0x15	; 21
     dd2:	3f af       	std	Y+63, r19	; 0x3f
     dd4:	65 97       	sbiw	r28, 0x15	; 21
			daytime = 5;
			lcdWriteText(0,0,"%s",AM_PM[daytime]);
			if(!entry_flag){
				entry_flag = 1;
				lcdWriteText(0,3,"%s",week_days[day_of_the_week]);
				zwischenspeicher_sekunden = seconds;
     dd6:	58 a9       	ldd	r21, Y+48	; 0x30
     dd8:	64 96       	adiw	r28, 0x14	; 20
     dda:	5f af       	std	Y+63, r21	; 0x3f
     ddc:	64 97       	sbiw	r28, 0x14	; 20
		
		case 3://Zeitänderungen
			daytime = 5;
			lcdWriteText(0,0,"%s",AM_PM[daytime]);
			if(!entry_flag){
				entry_flag = 1;
     dde:	61 e0       	ldi	r22, 0x01	; 1
     de0:	60 96       	adiw	r28, 0x10	; 16
     de2:	6f af       	std	Y+63, r22	; 0x3f
				zwischenspeicher_stunden = hour_24h;
				zwischenspeicher_datum = date_day;
				zwischenspeicher_wochentag = day_of_the_week;
				zwischenspeicher_monate = month;
			}
			if(kalender_modes<3){
     de4:	60 97       	sbiw	r28, 0x10	; 16
     de6:	2a 96       	adiw	r28, 0x0a	; 10
     de8:	8f ad       	ldd	r24, Y+63	; 0x3f
     dea:	2a 97       	sbiw	r28, 0x0a	; 10
     dec:	83 30       	cpi	r24, 0x03	; 3
				lcdWriteText(1,0,"%02u",zwischenspeicher_stunden);
     dee:	48 f5       	brcc	.+82     	; 0xe42 <__LOCK_REGION_LENGTH__+0xa42>
     df0:	1f 92       	push	r1
     df2:	63 96       	adiw	r28, 0x13	; 19
     df4:	9f ad       	ldd	r25, Y+63	; 0x3f
     df6:	63 97       	sbiw	r28, 0x13	; 19
     df8:	9f 93       	push	r25
     dfa:	03 e5       	ldi	r16, 0x53	; 83
     dfc:	12 e0       	ldi	r17, 0x02	; 2
     dfe:	1f 93       	push	r17
     e00:	0f 93       	push	r16
     e02:	1f 92       	push	r1
     e04:	ff 24       	eor	r15, r15
     e06:	f3 94       	inc	r15
     e08:	ff 92       	push	r15
				lcdWriteText(1,3,"%02u",zwischenspeicher_minuten);
     e0a:	83 d4       	rcall	.+2310   	; 0x1712 <lcdWriteText>
     e0c:	1f 92       	push	r1
     e0e:	65 96       	adiw	r28, 0x15	; 21
     e10:	ef ad       	ldd	r30, Y+63	; 0x3f
     e12:	65 97       	sbiw	r28, 0x15	; 21
     e14:	ef 93       	push	r30
     e16:	1f 93       	push	r17
     e18:	0f 93       	push	r16
     e1a:	83 e0       	ldi	r24, 0x03	; 3
     e1c:	8f 93       	push	r24
     e1e:	ff 92       	push	r15
				lcdWriteText(1,6,"%02u",zwischenspeicher_sekunden);
     e20:	78 d4       	rcall	.+2288   	; 0x1712 <lcdWriteText>
     e22:	1f 92       	push	r1
     e24:	64 96       	adiw	r28, 0x14	; 20
     e26:	ff ad       	ldd	r31, Y+63	; 0x3f
     e28:	64 97       	sbiw	r28, 0x14	; 20
     e2a:	ff 93       	push	r31
     e2c:	1f 93       	push	r17
     e2e:	0f 93       	push	r16
     e30:	86 e0       	ldi	r24, 0x06	; 6
     e32:	8f 93       	push	r24
     e34:	ff 92       	push	r15
     e36:	6d d4       	rcall	.+2266   	; 0x1712 <lcdWriteText>
     e38:	0f b6       	in	r0, 0x3f	; 63
     e3a:	f8 94       	cli
     e3c:	de bf       	out	0x3e, r29	; 62
     e3e:	0f be       	out	0x3f, r0	; 63
     e40:	cd bf       	out	0x3d, r28	; 61
			}
			switch(kalender_modes){
     e42:	2a 96       	adiw	r28, 0x0a	; 10
     e44:	3f ad       	ldd	r19, Y+63	; 0x3f
     e46:	2a 97       	sbiw	r28, 0x0a	; 10
     e48:	32 30       	cpi	r19, 0x02	; 2
     e4a:	09 f4       	brne	.+2      	; 0xe4e <__LOCK_REGION_LENGTH__+0xa4e>
     e4c:	ed c0       	rjmp	.+474    	; 0x1028 <__EEPROM_REGION_LENGTH__+0x28>
     e4e:	30 f4       	brcc	.+12     	; 0xe5c <__LOCK_REGION_LENGTH__+0xa5c>
     e50:	33 23       	and	r19, r19
     e52:	81 f0       	breq	.+32     	; 0xe74 <__LOCK_REGION_LENGTH__+0xa74>
     e54:	31 30       	cpi	r19, 0x01	; 1
     e56:	09 f4       	brne	.+2      	; 0xe5a <__LOCK_REGION_LENGTH__+0xa5a>
     e58:	7d c0       	rjmp	.+250    	; 0xf54 <__LOCK_REGION_LENGTH__+0xb54>
     e5a:	02 c3       	rjmp	.+1540   	; 0x1460 <__EEPROM_REGION_LENGTH__+0x460>
     e5c:	2a 96       	adiw	r28, 0x0a	; 10
     e5e:	5f ad       	ldd	r21, Y+63	; 0x3f
     e60:	2a 97       	sbiw	r28, 0x0a	; 10
     e62:	54 30       	cpi	r21, 0x04	; 4
     e64:	09 f4       	brne	.+2      	; 0xe68 <__LOCK_REGION_LENGTH__+0xa68>
     e66:	d3 c1       	rjmp	.+934    	; 0x120e <__EEPROM_REGION_LENGTH__+0x20e>
     e68:	08 f4       	brcc	.+2      	; 0xe6c <__LOCK_REGION_LENGTH__+0xa6c>
     e6a:	49 c1       	rjmp	.+658    	; 0x10fe <__EEPROM_REGION_LENGTH__+0xfe>
     e6c:	55 30       	cpi	r21, 0x05	; 5
     e6e:	09 f4       	brne	.+2      	; 0xe72 <__LOCK_REGION_LENGTH__+0xa72>
				case 0: //seconds
							if(blink_flag){
     e70:	46 c2       	rjmp	.+1164   	; 0x12fe <__EEPROM_REGION_LENGTH__+0x2fe>
     e72:	f6 c2       	rjmp	.+1516   	; 0x1460 <__EEPROM_REGION_LENGTH__+0x460>
     e74:	28 96       	adiw	r28, 0x08	; 8
     e76:	6f ad       	ldd	r22, Y+63	; 0x3f
								lcdWriteText(1,8,":");
     e78:	28 97       	sbiw	r28, 0x08	; 8
     e7a:	66 23       	and	r22, r22
     e7c:	e1 f0       	breq	.+56     	; 0xeb6 <__LOCK_REGION_LENGTH__+0xab6>
     e7e:	07 e4       	ldi	r16, 0x47	; 71
     e80:	12 e0       	ldi	r17, 0x02	; 2
     e82:	1f 93       	push	r17
     e84:	0f 93       	push	r16
     e86:	68 94       	set
     e88:	99 24       	eor	r9, r9
     e8a:	93 f8       	bld	r9, 3
     e8c:	9f 92       	push	r9
     e8e:	ff 24       	eor	r15, r15
     e90:	f3 94       	inc	r15
								lcdWriteText(1,8,":");
     e92:	ff 92       	push	r15
     e94:	3e d4       	rcall	.+2172   	; 0x1712 <lcdWriteText>
     e96:	1f 93       	push	r17
     e98:	0f 93       	push	r16
     e9a:	9f 92       	push	r9
								lcdWriteText(1,8,":");
     e9c:	ff 92       	push	r15
     e9e:	39 d4       	rcall	.+2162   	; 0x1712 <lcdWriteText>
     ea0:	1f 93       	push	r17
     ea2:	0f 93       	push	r16
     ea4:	9f 92       	push	r9
     ea6:	ff 92       	push	r15
     ea8:	34 d4       	rcall	.+2152   	; 0x1712 <lcdWriteText>
     eaa:	0f b6       	in	r0, 0x3f	; 63
     eac:	f8 94       	cli
     eae:	de bf       	out	0x3e, r29	; 62
							}
							else
							{
								lcdWriteText(1,8," ");
     eb0:	0f be       	out	0x3f, r0	; 63
     eb2:	cd bf       	out	0x3d, r28	; 61
     eb4:	1b c0       	rjmp	.+54     	; 0xeec <__LOCK_REGION_LENGTH__+0xaec>
     eb6:	0b e6       	ldi	r16, 0x6B	; 107
     eb8:	12 e0       	ldi	r17, 0x02	; 2
     eba:	1f 93       	push	r17
     ebc:	0f 93       	push	r16
     ebe:	68 94       	set
     ec0:	99 24       	eor	r9, r9
     ec2:	93 f8       	bld	r9, 3
     ec4:	9f 92       	push	r9
     ec6:	ff 24       	eor	r15, r15
     ec8:	f3 94       	inc	r15
								lcdWriteText(1,8," ");
     eca:	ff 92       	push	r15
     ecc:	22 d4       	rcall	.+2116   	; 0x1712 <lcdWriteText>
     ece:	1f 93       	push	r17
     ed0:	0f 93       	push	r16
     ed2:	9f 92       	push	r9
								lcdWriteText(1,8," ");
     ed4:	ff 92       	push	r15
     ed6:	1d d4       	rcall	.+2106   	; 0x1712 <lcdWriteText>
     ed8:	1f 93       	push	r17
     eda:	0f 93       	push	r16
     edc:	9f 92       	push	r9
     ede:	ff 92       	push	r15
     ee0:	18 d4       	rcall	.+2096   	; 0x1712 <lcdWriteText>
     ee2:	0f b6       	in	r0, 0x3f	; 63
     ee4:	f8 94       	cli
     ee6:	de bf       	out	0x3e, r29	; 62
     ee8:	0f be       	out	0x3f, r0	; 63
							}
					if(button_c){
     eea:	cd bf       	out	0x3d, r28	; 61
     eec:	2b ad       	ldd	r18, Y+59	; 0x3b
     eee:	3c ad       	ldd	r19, Y+60	; 0x3c
     ef0:	12 16       	cp	r1, r18
     ef2:	13 06       	cpc	r1, r19
						clock_modes = 0;
     ef4:	0c f4       	brge	.+2      	; 0xef8 <__LOCK_REGION_LENGTH__+0xaf8>
					}
					//nächster modus
					if(button_L){
     ef6:	81 2c       	mov	r8, r1
     ef8:	12 14       	cp	r1, r2
     efa:	13 04       	cpc	r1, r3
						lcdWriteText(1,8," ");
     efc:	b4 f4       	brge	.+44     	; 0xf2a <__LOCK_REGION_LENGTH__+0xb2a>
     efe:	8b e6       	ldi	r24, 0x6B	; 107
     f00:	92 e0       	ldi	r25, 0x02	; 2
     f02:	9f 93       	push	r25
     f04:	8f 93       	push	r24
     f06:	88 e0       	ldi	r24, 0x08	; 8
     f08:	8f 93       	push	r24
     f0a:	81 e0       	ldi	r24, 0x01	; 1
     f0c:	8f 93       	push	r24
     f0e:	01 d4       	rcall	.+2050   	; 0x1712 <lcdWriteText>
						kalender_modes += 1;
     f10:	2a 96       	adiw	r28, 0x0a	; 10
     f12:	3f ad       	ldd	r19, Y+63	; 0x3f
     f14:	2a 97       	sbiw	r28, 0x0a	; 10
     f16:	3f 5f       	subi	r19, 0xFF	; 255
     f18:	2a 96       	adiw	r28, 0x0a	; 10
     f1a:	3f af       	std	Y+63, r19	; 0x3f
     f1c:	2a 97       	sbiw	r28, 0x0a	; 10
     f1e:	0f 90       	pop	r0
     f20:	0f 90       	pop	r0
     f22:	0f 90       	pop	r0
     f24:	0f 90       	pop	r0
						clock_light = 1;
     f26:	77 24       	eor	r7, r7
     f28:	73 94       	inc	r7
					}
					if(button_A){
     f2a:	14 14       	cp	r1, r4
     f2c:	15 04       	cpc	r1, r5
     f2e:	3c f4       	brge	.+14     	; 0xf3e <__LOCK_REGION_LENGTH__+0xb3e>
						zwischenspeicher_sekunden += 1;
     f30:	64 96       	adiw	r28, 0x14	; 20
     f32:	5f ad       	ldd	r21, Y+63	; 0x3f
     f34:	64 97       	sbiw	r28, 0x14	; 20
     f36:	5f 5f       	subi	r21, 0xFF	; 255
     f38:	64 96       	adiw	r28, 0x14	; 20
     f3a:	5f af       	std	Y+63, r21	; 0x3f
					}
					if(zwischenspeicher_sekunden>59){
     f3c:	64 97       	sbiw	r28, 0x14	; 20
     f3e:	64 96       	adiw	r28, 0x14	; 20
     f40:	6f ad       	ldd	r22, Y+63	; 0x3f
     f42:	64 97       	sbiw	r28, 0x14	; 20
     f44:	6c 33       	cpi	r22, 0x3C	; 60
				clock_modes += 1;
			}
		break;
		
		case 3://Zeitänderungen
			daytime = 5;
     f46:	08 f0       	brcs	.+2      	; 0xf4a <__LOCK_REGION_LENGTH__+0xb4a>
     f48:	90 c2       	rjmp	.+1312   	; 0x146a <__EEPROM_REGION_LENGTH__+0x46a>
     f4a:	85 e0       	ldi	r24, 0x05	; 5
     f4c:	29 96       	adiw	r28, 0x09	; 9
					if(zwischenspeicher_sekunden>59){
						zwischenspeicher_sekunden = 0;
					}
				break;
				case 1: //hours
							if(blink_flag){
     f4e:	8f af       	std	Y+63, r24	; 0x3f
     f50:	29 97       	sbiw	r28, 0x09	; 9
     f52:	ce c2       	rjmp	.+1436   	; 0x14f0 <__EEPROM_REGION_LENGTH__+0x4f0>
     f54:	28 96       	adiw	r28, 0x08	; 8
     f56:	9f ad       	ldd	r25, Y+63	; 0x3f
								lcdWriteText(1,2,":");
     f58:	28 97       	sbiw	r28, 0x08	; 8
     f5a:	99 23       	and	r25, r25
     f5c:	e1 f0       	breq	.+56     	; 0xf96 <__LOCK_REGION_LENGTH__+0xb96>
     f5e:	07 e4       	ldi	r16, 0x47	; 71
     f60:	12 e0       	ldi	r17, 0x02	; 2
     f62:	1f 93       	push	r17
     f64:	0f 93       	push	r16
     f66:	68 94       	set
     f68:	99 24       	eor	r9, r9
     f6a:	91 f8       	bld	r9, 1
     f6c:	9f 92       	push	r9
     f6e:	ff 24       	eor	r15, r15
								lcdWriteText(1,2,":");
     f70:	f3 94       	inc	r15
     f72:	ff 92       	push	r15
     f74:	ce d3       	rcall	.+1948   	; 0x1712 <lcdWriteText>
     f76:	1f 93       	push	r17
     f78:	0f 93       	push	r16
								lcdWriteText(1,2,":");
     f7a:	9f 92       	push	r9
     f7c:	ff 92       	push	r15
     f7e:	c9 d3       	rcall	.+1938   	; 0x1712 <lcdWriteText>
     f80:	1f 93       	push	r17
     f82:	0f 93       	push	r16
     f84:	9f 92       	push	r9
     f86:	ff 92       	push	r15
     f88:	c4 d3       	rcall	.+1928   	; 0x1712 <lcdWriteText>
     f8a:	0f b6       	in	r0, 0x3f	; 63
     f8c:	f8 94       	cli
     f8e:	de bf       	out	0x3e, r29	; 62
							}
							else
							{
								lcdWriteText(1,2," ");
     f90:	0f be       	out	0x3f, r0	; 63
     f92:	cd bf       	out	0x3d, r28	; 61
     f94:	1b c0       	rjmp	.+54     	; 0xfcc <__LOCK_REGION_LENGTH__+0xbcc>
     f96:	0b e6       	ldi	r16, 0x6B	; 107
     f98:	12 e0       	ldi	r17, 0x02	; 2
     f9a:	1f 93       	push	r17
     f9c:	0f 93       	push	r16
     f9e:	68 94       	set
     fa0:	99 24       	eor	r9, r9
     fa2:	91 f8       	bld	r9, 1
     fa4:	9f 92       	push	r9
     fa6:	ff 24       	eor	r15, r15
								lcdWriteText(1,2," ");
     fa8:	f3 94       	inc	r15
     faa:	ff 92       	push	r15
     fac:	b2 d3       	rcall	.+1892   	; 0x1712 <lcdWriteText>
     fae:	1f 93       	push	r17
     fb0:	0f 93       	push	r16
     fb2:	9f 92       	push	r9
								lcdWriteText(1,2," ");
     fb4:	ff 92       	push	r15
     fb6:	ad d3       	rcall	.+1882   	; 0x1712 <lcdWriteText>
     fb8:	1f 93       	push	r17
     fba:	0f 93       	push	r16
     fbc:	9f 92       	push	r9
     fbe:	ff 92       	push	r15
     fc0:	a8 d3       	rcall	.+1872   	; 0x1712 <lcdWriteText>
     fc2:	0f b6       	in	r0, 0x3f	; 63
     fc4:	f8 94       	cli
     fc6:	de bf       	out	0x3e, r29	; 62
     fc8:	0f be       	out	0x3f, r0	; 63
							}
					//nächster modus
					if(button_L){
     fca:	cd bf       	out	0x3d, r28	; 61
     fcc:	12 14       	cp	r1, r2
     fce:	13 04       	cpc	r1, r3
						kalender_modes += 1;
     fd0:	b4 f4       	brge	.+44     	; 0xffe <__LOCK_REGION_LENGTH__+0xbfe>
     fd2:	2a 96       	adiw	r28, 0x0a	; 10
     fd4:	3f ad       	ldd	r19, Y+63	; 0x3f
     fd6:	2a 97       	sbiw	r28, 0x0a	; 10
     fd8:	3f 5f       	subi	r19, 0xFF	; 255
     fda:	2a 96       	adiw	r28, 0x0a	; 10
     fdc:	3f af       	std	Y+63, r19	; 0x3f
						lcdWriteText(1,2,":");
     fde:	2a 97       	sbiw	r28, 0x0a	; 10
     fe0:	87 e4       	ldi	r24, 0x47	; 71
     fe2:	92 e0       	ldi	r25, 0x02	; 2
     fe4:	9f 93       	push	r25
     fe6:	8f 93       	push	r24
     fe8:	82 e0       	ldi	r24, 0x02	; 2
     fea:	8f 93       	push	r24
     fec:	81 e0       	ldi	r24, 0x01	; 1
     fee:	8f 93       	push	r24
     ff0:	90 d3       	rcall	.+1824   	; 0x1712 <lcdWriteText>
     ff2:	0f 90       	pop	r0
     ff4:	0f 90       	pop	r0
     ff6:	0f 90       	pop	r0
     ff8:	0f 90       	pop	r0
						clock_light = 1;
     ffa:	77 24       	eor	r7, r7
     ffc:	73 94       	inc	r7
					}
					if(button_A){
     ffe:	14 14       	cp	r1, r4
    1000:	15 04       	cpc	r1, r5
						zwischenspeicher_stunden += 1;
    1002:	3c f4       	brge	.+14     	; 0x1012 <__EEPROM_REGION_LENGTH__+0x12>
    1004:	63 96       	adiw	r28, 0x13	; 19
    1006:	5f ad       	ldd	r21, Y+63	; 0x3f
    1008:	63 97       	sbiw	r28, 0x13	; 19
    100a:	5f 5f       	subi	r21, 0xFF	; 255
    100c:	63 96       	adiw	r28, 0x13	; 19
					}
					if(zwischenspeicher_stunden >23){
    100e:	5f af       	std	Y+63, r21	; 0x3f
    1010:	63 97       	sbiw	r28, 0x13	; 19
    1012:	63 96       	adiw	r28, 0x13	; 19
    1014:	6f ad       	ldd	r22, Y+63	; 0x3f
    1016:	63 97       	sbiw	r28, 0x13	; 19
				clock_modes += 1;
			}
		break;
		
		case 3://Zeitänderungen
			daytime = 5;
    1018:	68 31       	cpi	r22, 0x18	; 24
    101a:	08 f0       	brcs	.+2      	; 0x101e <__EEPROM_REGION_LENGTH__+0x1e>
    101c:	2e c2       	rjmp	.+1116   	; 0x147a <__EEPROM_REGION_LENGTH__+0x47a>
    101e:	85 e0       	ldi	r24, 0x05	; 5
    1020:	29 96       	adiw	r28, 0x09	; 9
					if(zwischenspeicher_stunden >23){
						zwischenspeicher_stunden = 0;
					}
				break;
				case 2: //minutes
							if(blink_flag){
    1022:	8f af       	std	Y+63, r24	; 0x3f
    1024:	29 97       	sbiw	r28, 0x09	; 9
    1026:	64 c2       	rjmp	.+1224   	; 0x14f0 <__EEPROM_REGION_LENGTH__+0x4f0>
    1028:	28 96       	adiw	r28, 0x08	; 8
    102a:	9f ad       	ldd	r25, Y+63	; 0x3f
								lcdWriteText(1,5,":");
    102c:	28 97       	sbiw	r28, 0x08	; 8
    102e:	99 23       	and	r25, r25
    1030:	e9 f0       	breq	.+58     	; 0x106c <__EEPROM_REGION_LENGTH__+0x6c>
    1032:	07 e4       	ldi	r16, 0x47	; 71
    1034:	12 e0       	ldi	r17, 0x02	; 2
    1036:	1f 93       	push	r17
    1038:	0f 93       	push	r16
    103a:	0f 2e       	mov	r0, r31
    103c:	f5 e0       	ldi	r31, 0x05	; 5
    103e:	9f 2e       	mov	r9, r31
    1040:	f0 2d       	mov	r31, r0
    1042:	9f 92       	push	r9
								lcdWriteText(1,5,":");
    1044:	ff 24       	eor	r15, r15
    1046:	f3 94       	inc	r15
    1048:	ff 92       	push	r15
    104a:	63 d3       	rcall	.+1734   	; 0x1712 <lcdWriteText>
    104c:	1f 93       	push	r17
								lcdWriteText(1,5,":");
    104e:	0f 93       	push	r16
    1050:	9f 92       	push	r9
    1052:	ff 92       	push	r15
    1054:	5e d3       	rcall	.+1724   	; 0x1712 <lcdWriteText>
    1056:	1f 93       	push	r17
    1058:	0f 93       	push	r16
    105a:	9f 92       	push	r9
    105c:	ff 92       	push	r15
    105e:	59 d3       	rcall	.+1714   	; 0x1712 <lcdWriteText>
    1060:	0f b6       	in	r0, 0x3f	; 63
    1062:	f8 94       	cli
    1064:	de bf       	out	0x3e, r29	; 62
							}
							else
							{
								lcdWriteText(1,5," ");
    1066:	0f be       	out	0x3f, r0	; 63
    1068:	cd bf       	out	0x3d, r28	; 61
    106a:	1c c0       	rjmp	.+56     	; 0x10a4 <__EEPROM_REGION_LENGTH__+0xa4>
    106c:	0b e6       	ldi	r16, 0x6B	; 107
    106e:	12 e0       	ldi	r17, 0x02	; 2
    1070:	1f 93       	push	r17
    1072:	0f 93       	push	r16
    1074:	0f 2e       	mov	r0, r31
    1076:	f5 e0       	ldi	r31, 0x05	; 5
    1078:	9f 2e       	mov	r9, r31
    107a:	f0 2d       	mov	r31, r0
    107c:	9f 92       	push	r9
    107e:	ff 24       	eor	r15, r15
								lcdWriteText(1,5," ");
    1080:	f3 94       	inc	r15
    1082:	ff 92       	push	r15
    1084:	46 d3       	rcall	.+1676   	; 0x1712 <lcdWriteText>
    1086:	1f 93       	push	r17
    1088:	0f 93       	push	r16
    108a:	9f 92       	push	r9
								lcdWriteText(1,5," ");
    108c:	ff 92       	push	r15
    108e:	41 d3       	rcall	.+1666   	; 0x1712 <lcdWriteText>
    1090:	1f 93       	push	r17
    1092:	0f 93       	push	r16
    1094:	9f 92       	push	r9
    1096:	ff 92       	push	r15
    1098:	3c d3       	rcall	.+1656   	; 0x1712 <lcdWriteText>
    109a:	0f b6       	in	r0, 0x3f	; 63
    109c:	f8 94       	cli
    109e:	de bf       	out	0x3e, r29	; 62
    10a0:	0f be       	out	0x3f, r0	; 63
							}
					//nächster modus
					if(button_L){
    10a2:	cd bf       	out	0x3d, r28	; 61
    10a4:	12 14       	cp	r1, r2
    10a6:	13 04       	cpc	r1, r3
						kalender_modes += 1;
    10a8:	ac f4       	brge	.+42     	; 0x10d4 <__EEPROM_REGION_LENGTH__+0xd4>
    10aa:	2a 96       	adiw	r28, 0x0a	; 10
    10ac:	3f ad       	ldd	r19, Y+63	; 0x3f
    10ae:	2a 97       	sbiw	r28, 0x0a	; 10
    10b0:	3f 5f       	subi	r19, 0xFF	; 255
    10b2:	2a 96       	adiw	r28, 0x0a	; 10
    10b4:	3f af       	std	Y+63, r19	; 0x3f
						clock_light = 1;
						lcdWriteText(1,0,"                    ");
    10b6:	2a 97       	sbiw	r28, 0x0a	; 10
    10b8:	88 e5       	ldi	r24, 0x58	; 88
    10ba:	92 e0       	ldi	r25, 0x02	; 2
    10bc:	9f 93       	push	r25
    10be:	8f 93       	push	r24
    10c0:	1f 92       	push	r1
    10c2:	81 e0       	ldi	r24, 0x01	; 1
    10c4:	8f 93       	push	r24
    10c6:	25 d3       	rcall	.+1610   	; 0x1712 <lcdWriteText>
    10c8:	0f 90       	pop	r0
    10ca:	0f 90       	pop	r0
    10cc:	0f 90       	pop	r0
								lcdWriteText(1,5," ");
							}
					//nächster modus
					if(button_L){
						kalender_modes += 1;
						clock_light = 1;
    10ce:	0f 90       	pop	r0
						lcdWriteText(1,0,"                    ");
					}
					if(button_A){
    10d0:	77 24       	eor	r7, r7
    10d2:	73 94       	inc	r7
    10d4:	14 14       	cp	r1, r4
						zwischenspeicher_minuten += 1;
    10d6:	15 04       	cpc	r1, r5
    10d8:	3c f4       	brge	.+14     	; 0x10e8 <__EEPROM_REGION_LENGTH__+0xe8>
    10da:	65 96       	adiw	r28, 0x15	; 21
    10dc:	5f ad       	ldd	r21, Y+63	; 0x3f
    10de:	65 97       	sbiw	r28, 0x15	; 21
					}
					if(zwischenspeicher_minuten > 59){
    10e0:	5f 5f       	subi	r21, 0xFF	; 255
    10e2:	65 96       	adiw	r28, 0x15	; 21
    10e4:	5f af       	std	Y+63, r21	; 0x3f
    10e6:	65 97       	sbiw	r28, 0x15	; 21
    10e8:	65 96       	adiw	r28, 0x15	; 21
    10ea:	6f ad       	ldd	r22, Y+63	; 0x3f
				clock_modes += 1;
			}
		break;
		
		case 3://Zeitänderungen
			daytime = 5;
    10ec:	65 97       	sbiw	r28, 0x15	; 21
    10ee:	6c 33       	cpi	r22, 0x3C	; 60
    10f0:	08 f0       	brcs	.+2      	; 0x10f4 <__EEPROM_REGION_LENGTH__+0xf4>
    10f2:	cb c1       	rjmp	.+918    	; 0x148a <__EEPROM_REGION_LENGTH__+0x48a>
    10f4:	85 e0       	ldi	r24, 0x05	; 5
					if(zwischenspeicher_minuten > 59){
						zwischenspeicher_minuten = 0;
					}
				break;
				case 3: //month
							if(blink_flag){
    10f6:	29 96       	adiw	r28, 0x09	; 9
    10f8:	8f af       	std	Y+63, r24	; 0x3f
    10fa:	29 97       	sbiw	r28, 0x09	; 9
    10fc:	f9 c1       	rjmp	.+1010   	; 0x14f0 <__EEPROM_REGION_LENGTH__+0x4f0>
    10fe:	28 96       	adiw	r28, 0x08	; 8
								lcdWriteText(1,2,":");
    1100:	9f ad       	ldd	r25, Y+63	; 0x3f
    1102:	28 97       	sbiw	r28, 0x08	; 8
    1104:	99 23       	and	r25, r25
    1106:	09 f1       	breq	.+66     	; 0x114a <__EEPROM_REGION_LENGTH__+0x14a>
    1108:	07 e4       	ldi	r16, 0x47	; 71
    110a:	12 e0       	ldi	r17, 0x02	; 2
    110c:	1f 93       	push	r17
    110e:	0f 93       	push	r16
    1110:	68 94       	set
    1112:	99 24       	eor	r9, r9
								lcdWriteText(1,2,":");
    1114:	91 f8       	bld	r9, 1
    1116:	9f 92       	push	r9
    1118:	ff 24       	eor	r15, r15
    111a:	f3 94       	inc	r15
    111c:	ff 92       	push	r15
								lcdWriteText(1,2,":");
    111e:	f9 d2       	rcall	.+1522   	; 0x1712 <lcdWriteText>
    1120:	1f 93       	push	r17
    1122:	0f 93       	push	r16
    1124:	9f 92       	push	r9
    1126:	ff 92       	push	r15
    1128:	f4 d2       	rcall	.+1512   	; 0x1712 <lcdWriteText>
								lcdWriteText(1,2,":");
    112a:	1f 93       	push	r17
    112c:	0f 93       	push	r16
    112e:	9f 92       	push	r9
    1130:	ff 92       	push	r15
    1132:	ef d2       	rcall	.+1502   	; 0x1712 <lcdWriteText>
    1134:	1f 93       	push	r17
    1136:	0f 93       	push	r16
    1138:	9f 92       	push	r9
    113a:	ff 92       	push	r15
    113c:	ea d2       	rcall	.+1492   	; 0x1712 <lcdWriteText>
    113e:	0f b6       	in	r0, 0x3f	; 63
    1140:	f8 94       	cli
							}
							else{
								lcdWriteText(1,2," ");
    1142:	de bf       	out	0x3e, r29	; 62
    1144:	0f be       	out	0x3f, r0	; 63
    1146:	cd bf       	out	0x3d, r28	; 61
    1148:	20 c0       	rjmp	.+64     	; 0x118a <__EEPROM_REGION_LENGTH__+0x18a>
    114a:	0b e6       	ldi	r16, 0x6B	; 107
    114c:	12 e0       	ldi	r17, 0x02	; 2
    114e:	1f 93       	push	r17
    1150:	0f 93       	push	r16
    1152:	68 94       	set
    1154:	99 24       	eor	r9, r9
    1156:	91 f8       	bld	r9, 1
    1158:	9f 92       	push	r9
								lcdWriteText(1,2," ");
    115a:	ff 24       	eor	r15, r15
    115c:	f3 94       	inc	r15
    115e:	ff 92       	push	r15
    1160:	d8 d2       	rcall	.+1456   	; 0x1712 <lcdWriteText>
    1162:	1f 93       	push	r17
    1164:	0f 93       	push	r16
								lcdWriteText(1,2," ");
    1166:	9f 92       	push	r9
    1168:	ff 92       	push	r15
    116a:	d3 d2       	rcall	.+1446   	; 0x1712 <lcdWriteText>
    116c:	1f 93       	push	r17
    116e:	0f 93       	push	r16
    1170:	9f 92       	push	r9
								lcdWriteText(1,2," ");
    1172:	ff 92       	push	r15
    1174:	ce d2       	rcall	.+1436   	; 0x1712 <lcdWriteText>
    1176:	1f 93       	push	r17
    1178:	0f 93       	push	r16
    117a:	9f 92       	push	r9
    117c:	ff 92       	push	r15
    117e:	c9 d2       	rcall	.+1426   	; 0x1712 <lcdWriteText>
    1180:	0f b6       	in	r0, 0x3f	; 63
    1182:	f8 94       	cli
    1184:	de bf       	out	0x3e, r29	; 62
    1186:	0f be       	out	0x3f, r0	; 63
							}
					//nächster modus
					if(button_L){
    1188:	cd bf       	out	0x3d, r28	; 61
    118a:	12 14       	cp	r1, r2
    118c:	13 04       	cpc	r1, r3
						kalender_modes += 1;
    118e:	b4 f4       	brge	.+44     	; 0x11bc <__EEPROM_REGION_LENGTH__+0x1bc>
    1190:	2a 96       	adiw	r28, 0x0a	; 10
    1192:	3f ad       	ldd	r19, Y+63	; 0x3f
    1194:	2a 97       	sbiw	r28, 0x0a	; 10
    1196:	3f 5f       	subi	r19, 0xFF	; 255
    1198:	2a 96       	adiw	r28, 0x0a	; 10
						lcdWriteText(1,2," ");
    119a:	3f af       	std	Y+63, r19	; 0x3f
    119c:	2a 97       	sbiw	r28, 0x0a	; 10
    119e:	8b e6       	ldi	r24, 0x6B	; 107
    11a0:	92 e0       	ldi	r25, 0x02	; 2
    11a2:	9f 93       	push	r25
    11a4:	8f 93       	push	r24
    11a6:	82 e0       	ldi	r24, 0x02	; 2
    11a8:	8f 93       	push	r24
    11aa:	81 e0       	ldi	r24, 0x01	; 1
    11ac:	8f 93       	push	r24
    11ae:	b1 d2       	rcall	.+1378   	; 0x1712 <lcdWriteText>
    11b0:	0f 90       	pop	r0
    11b2:	0f 90       	pop	r0
    11b4:	0f 90       	pop	r0
						clock_light = 1;
    11b6:	0f 90       	pop	r0
    11b8:	77 24       	eor	r7, r7
					}
					if(button_A){
    11ba:	73 94       	inc	r7
    11bc:	14 14       	cp	r1, r4
    11be:	15 04       	cpc	r1, r5
						zwischenspeicher_monate += 1;
    11c0:	3c f4       	brge	.+14     	; 0x11d0 <__EEPROM_REGION_LENGTH__+0x1d0>
    11c2:	66 96       	adiw	r28, 0x16	; 22
    11c4:	5f ad       	ldd	r21, Y+63	; 0x3f
    11c6:	66 97       	sbiw	r28, 0x16	; 22
    11c8:	5f 5f       	subi	r21, 0xFF	; 255
					}
					if(zwischenspeicher_monate>12){
    11ca:	66 96       	adiw	r28, 0x16	; 22
    11cc:	5f af       	std	Y+63, r21	; 0x3f
    11ce:	66 97       	sbiw	r28, 0x16	; 22
    11d0:	66 96       	adiw	r28, 0x16	; 22
						zwischenspeicher_monate = 1;
    11d2:	6f ad       	ldd	r22, Y+63	; 0x3f
    11d4:	66 97       	sbiw	r28, 0x16	; 22
    11d6:	6d 30       	cpi	r22, 0x0D	; 13
    11d8:	20 f0       	brcs	.+8      	; 0x11e2 <__EEPROM_REGION_LENGTH__+0x1e2>
					}
					lcdWriteZahl(1,0,zwischenspeicher_monate,2,0);
    11da:	81 e0       	ldi	r24, 0x01	; 1
    11dc:	66 96       	adiw	r28, 0x16	; 22
    11de:	8f af       	std	Y+63, r24	; 0x3f
    11e0:	66 97       	sbiw	r28, 0x16	; 22
    11e2:	a1 2c       	mov	r10, r1
    11e4:	68 94       	set
    11e6:	cc 24       	eor	r12, r12
    11e8:	c1 f8       	bld	r12, 1
    11ea:	66 96       	adiw	r28, 0x16	; 22
    11ec:	ef ac       	ldd	r14, Y+63	; 0x3f
    11ee:	66 97       	sbiw	r28, 0x16	; 22
    11f0:	f1 2c       	mov	r15, r1
    11f2:	00 e0       	ldi	r16, 0x00	; 0
    11f4:	10 e0       	ldi	r17, 0x00	; 0
    11f6:	20 e0       	ldi	r18, 0x00	; 0
    11f8:	30 e0       	ldi	r19, 0x00	; 0
				clock_modes += 1;
			}
		break;
		
		case 3://Zeitänderungen
			daytime = 5;
    11fa:	40 e0       	ldi	r20, 0x00	; 0
    11fc:	50 e0       	ldi	r21, 0x00	; 0
    11fe:	60 e0       	ldi	r22, 0x00	; 0
    1200:	81 e0       	ldi	r24, 0x01	; 1
					if(zwischenspeicher_monate>12){
						zwischenspeicher_monate = 1;
					}
					lcdWriteZahl(1,0,zwischenspeicher_monate,2,0);
					
				break;
    1202:	e8 d2       	rcall	.+1488   	; 0x17d4 <lcdWriteZahl>
				case 4: //date
							if(blink_flag){
    1204:	95 e0       	ldi	r25, 0x05	; 5
    1206:	29 96       	adiw	r28, 0x09	; 9
    1208:	9f af       	std	Y+63, r25	; 0x3f
    120a:	29 97       	sbiw	r28, 0x09	; 9
    120c:	71 c1       	rjmp	.+738    	; 0x14f0 <__EEPROM_REGION_LENGTH__+0x4f0>
								lcdWriteText(0,17,":");
    120e:	28 96       	adiw	r28, 0x08	; 8
    1210:	ef ad       	ldd	r30, Y+63	; 0x3f
    1212:	28 97       	sbiw	r28, 0x08	; 8
    1214:	ee 23       	and	r30, r30
    1216:	d9 f0       	breq	.+54     	; 0x124e <__EEPROM_REGION_LENGTH__+0x24e>
    1218:	07 e4       	ldi	r16, 0x47	; 71
    121a:	12 e0       	ldi	r17, 0x02	; 2
    121c:	1f 93       	push	r17
    121e:	0f 93       	push	r16
    1220:	0f 2e       	mov	r0, r31
    1222:	f1 e1       	ldi	r31, 0x11	; 17
								lcdWriteText(0,17,":");
    1224:	ff 2e       	mov	r15, r31
    1226:	f0 2d       	mov	r31, r0
    1228:	ff 92       	push	r15
    122a:	1f 92       	push	r1
    122c:	72 d2       	rcall	.+1252   	; 0x1712 <lcdWriteText>
    122e:	1f 93       	push	r17
								lcdWriteText(0,17,":");
    1230:	0f 93       	push	r16
    1232:	ff 92       	push	r15
    1234:	1f 92       	push	r1
    1236:	6d d2       	rcall	.+1242   	; 0x1712 <lcdWriteText>
    1238:	1f 93       	push	r17
    123a:	0f 93       	push	r16
    123c:	ff 92       	push	r15
    123e:	1f 92       	push	r1
    1240:	68 d2       	rcall	.+1232   	; 0x1712 <lcdWriteText>
    1242:	0f b6       	in	r0, 0x3f	; 63
    1244:	f8 94       	cli
    1246:	de bf       	out	0x3e, r29	; 62
							}
							else
							{
								lcdWriteText(0,17," ");
    1248:	0f be       	out	0x3f, r0	; 63
    124a:	cd bf       	out	0x3d, r28	; 61
    124c:	15 c0       	rjmp	.+42     	; 0x1278 <__EEPROM_REGION_LENGTH__+0x278>
    124e:	0b e6       	ldi	r16, 0x6B	; 107
    1250:	12 e0       	ldi	r17, 0x02	; 2
    1252:	1f 93       	push	r17
    1254:	0f 93       	push	r16
    1256:	0f 2e       	mov	r0, r31
    1258:	f1 e1       	ldi	r31, 0x11	; 17
    125a:	ff 2e       	mov	r15, r31
    125c:	f0 2d       	mov	r31, r0
    125e:	ff 92       	push	r15
								lcdWriteText(0,17," ");
    1260:	1f 92       	push	r1
    1262:	57 d2       	rcall	.+1198   	; 0x1712 <lcdWriteText>
    1264:	1f 93       	push	r17
    1266:	0f 93       	push	r16
    1268:	ff 92       	push	r15
    126a:	1f 92       	push	r1
    126c:	52 d2       	rcall	.+1188   	; 0x1712 <lcdWriteText>
    126e:	0f b6       	in	r0, 0x3f	; 63
    1270:	f8 94       	cli
    1272:	de bf       	out	0x3e, r29	; 62
							}
					//nächster modus
					if(button_L){
    1274:	0f be       	out	0x3f, r0	; 63
    1276:	cd bf       	out	0x3d, r28	; 61
    1278:	12 14       	cp	r1, r2
						lcdWriteText(0,17," ");
    127a:	13 04       	cpc	r1, r3
    127c:	ac f4       	brge	.+42     	; 0x12a8 <__EEPROM_REGION_LENGTH__+0x2a8>
    127e:	8b e6       	ldi	r24, 0x6B	; 107
    1280:	92 e0       	ldi	r25, 0x02	; 2
    1282:	9f 93       	push	r25
    1284:	8f 93       	push	r24
    1286:	81 e1       	ldi	r24, 0x11	; 17
    1288:	8f 93       	push	r24
    128a:	1f 92       	push	r1
						kalender_modes += 1;
    128c:	42 d2       	rcall	.+1156   	; 0x1712 <lcdWriteText>
    128e:	2a 96       	adiw	r28, 0x0a	; 10
    1290:	9f ad       	ldd	r25, Y+63	; 0x3f
    1292:	2a 97       	sbiw	r28, 0x0a	; 10
    1294:	9f 5f       	subi	r25, 0xFF	; 255
    1296:	2a 96       	adiw	r28, 0x0a	; 10
    1298:	9f af       	std	Y+63, r25	; 0x3f
    129a:	2a 97       	sbiw	r28, 0x0a	; 10
    129c:	0f 90       	pop	r0
    129e:	0f 90       	pop	r0
    12a0:	0f 90       	pop	r0
						clock_light = 1;
    12a2:	0f 90       	pop	r0
					}
					if(button_A){
    12a4:	77 24       	eor	r7, r7
    12a6:	73 94       	inc	r7
    12a8:	14 14       	cp	r1, r4
						zwischenspeicher_datum += 1;
    12aa:	15 04       	cpc	r1, r5
    12ac:	3c f4       	brge	.+14     	; 0x12bc <__EEPROM_REGION_LENGTH__+0x2bc>
    12ae:	67 96       	adiw	r28, 0x17	; 23
    12b0:	ef ad       	ldd	r30, Y+63	; 0x3f
    12b2:	67 97       	sbiw	r28, 0x17	; 23
					}
					if(zwischenspeicher_datum >31){
    12b4:	ef 5f       	subi	r30, 0xFF	; 255
    12b6:	67 96       	adiw	r28, 0x17	; 23
    12b8:	ef af       	std	Y+63, r30	; 0x3f
    12ba:	67 97       	sbiw	r28, 0x17	; 23
    12bc:	67 96       	adiw	r28, 0x17	; 23
						zwischenspeicher_datum = 1;
    12be:	ff ad       	ldd	r31, Y+63	; 0x3f
    12c0:	67 97       	sbiw	r28, 0x17	; 23
    12c2:	f0 32       	cpi	r31, 0x20	; 32
    12c4:	20 f0       	brcs	.+8      	; 0x12ce <__EEPROM_REGION_LENGTH__+0x2ce>

					}
					lcdWriteText(0,18,"%u ",zwischenspeicher_datum);
    12c6:	21 e0       	ldi	r18, 0x01	; 1
    12c8:	67 96       	adiw	r28, 0x17	; 23
    12ca:	2f af       	std	Y+63, r18	; 0x3f
    12cc:	67 97       	sbiw	r28, 0x17	; 23
    12ce:	1f 92       	push	r1
    12d0:	67 96       	adiw	r28, 0x17	; 23
    12d2:	3f ad       	ldd	r19, Y+63	; 0x3f
    12d4:	67 97       	sbiw	r28, 0x17	; 23
    12d6:	3f 93       	push	r19
    12d8:	8d e6       	ldi	r24, 0x6D	; 109
    12da:	92 e0       	ldi	r25, 0x02	; 2
    12dc:	9f 93       	push	r25
				break;
    12de:	8f 93       	push	r24
    12e0:	82 e1       	ldi	r24, 0x12	; 18
    12e2:	8f 93       	push	r24
    12e4:	1f 92       	push	r1
    12e6:	15 d2       	rcall	.+1066   	; 0x1712 <lcdWriteText>
				clock_modes += 1;
			}
		break;
		
		case 3://Zeitänderungen
			daytime = 5;
    12e8:	0f 90       	pop	r0
    12ea:	0f 90       	pop	r0
    12ec:	0f 90       	pop	r0
    12ee:	0f 90       	pop	r0
					if(zwischenspeicher_datum >31){
						zwischenspeicher_datum = 1;

					}
					lcdWriteText(0,18,"%u ",zwischenspeicher_datum);
				break;
    12f0:	0f 90       	pop	r0
				case 5://weekday
							if(blink_flag){
    12f2:	0f 90       	pop	r0
    12f4:	55 e0       	ldi	r21, 0x05	; 5
    12f6:	29 96       	adiw	r28, 0x09	; 9
    12f8:	5f af       	std	Y+63, r21	; 0x3f
    12fa:	29 97       	sbiw	r28, 0x09	; 9
								lcdWriteText(0,5,":");
    12fc:	f9 c0       	rjmp	.+498    	; 0x14f0 <__EEPROM_REGION_LENGTH__+0x4f0>
    12fe:	28 96       	adiw	r28, 0x08	; 8
    1300:	6f ad       	ldd	r22, Y+63	; 0x3f
    1302:	28 97       	sbiw	r28, 0x08	; 8
    1304:	66 23       	and	r22, r22
    1306:	d9 f0       	breq	.+54     	; 0x133e <__EEPROM_REGION_LENGTH__+0x33e>
    1308:	07 e4       	ldi	r16, 0x47	; 71
    130a:	12 e0       	ldi	r17, 0x02	; 2
    130c:	1f 93       	push	r17
    130e:	0f 93       	push	r16
    1310:	0f 2e       	mov	r0, r31
    1312:	f5 e0       	ldi	r31, 0x05	; 5
								lcdWriteText(0,5,":");
    1314:	ff 2e       	mov	r15, r31
    1316:	f0 2d       	mov	r31, r0
    1318:	ff 92       	push	r15
    131a:	1f 92       	push	r1
    131c:	fa d1       	rcall	.+1012   	; 0x1712 <lcdWriteText>
    131e:	1f 93       	push	r17
								lcdWriteText(0,5,":");
    1320:	0f 93       	push	r16
    1322:	ff 92       	push	r15
    1324:	1f 92       	push	r1
    1326:	f5 d1       	rcall	.+1002   	; 0x1712 <lcdWriteText>
    1328:	1f 93       	push	r17
    132a:	0f 93       	push	r16
    132c:	ff 92       	push	r15
    132e:	1f 92       	push	r1
    1330:	f0 d1       	rcall	.+992    	; 0x1712 <lcdWriteText>
    1332:	0f b6       	in	r0, 0x3f	; 63
    1334:	f8 94       	cli
    1336:	de bf       	out	0x3e, r29	; 62
							}
							else
							{
								lcdWriteText(0,5," ");
    1338:	0f be       	out	0x3f, r0	; 63
    133a:	cd bf       	out	0x3d, r28	; 61
    133c:	1c c0       	rjmp	.+56     	; 0x1376 <__EEPROM_REGION_LENGTH__+0x376>
    133e:	0b e6       	ldi	r16, 0x6B	; 107
    1340:	12 e0       	ldi	r17, 0x02	; 2
    1342:	1f 93       	push	r17
    1344:	0f 93       	push	r16
    1346:	0f 2e       	mov	r0, r31
    1348:	f5 e0       	ldi	r31, 0x05	; 5
    134a:	ff 2e       	mov	r15, r31
    134c:	f0 2d       	mov	r31, r0
								lcdWriteText(0,5," ");
    134e:	ff 92       	push	r15
    1350:	1f 92       	push	r1
    1352:	df d1       	rcall	.+958    	; 0x1712 <lcdWriteText>
    1354:	1f 93       	push	r17
    1356:	0f 93       	push	r16
    1358:	ff 92       	push	r15
								lcdWriteText(0,5,":");
    135a:	1f 92       	push	r1
    135c:	da d1       	rcall	.+948    	; 0x1712 <lcdWriteText>
    135e:	87 e4       	ldi	r24, 0x47	; 71
    1360:	92 e0       	ldi	r25, 0x02	; 2
    1362:	9f 93       	push	r25
    1364:	8f 93       	push	r24
    1366:	ff 92       	push	r15
    1368:	1f 92       	push	r1
    136a:	d3 d1       	rcall	.+934    	; 0x1712 <lcdWriteText>
    136c:	0f b6       	in	r0, 0x3f	; 63
    136e:	f8 94       	cli
    1370:	de bf       	out	0x3e, r29	; 62
							}
					if(button_A){
    1372:	0f be       	out	0x3f, r0	; 63
    1374:	cd bf       	out	0x3d, r28	; 61
    1376:	14 14       	cp	r1, r4
						zwischenspeicher_wochentag += 1;
    1378:	15 04       	cpc	r1, r5
    137a:	3c f4       	brge	.+14     	; 0x138a <__EEPROM_REGION_LENGTH__+0x38a>
    137c:	68 96       	adiw	r28, 0x18	; 24
    137e:	ff ad       	ldd	r31, Y+63	; 0x3f
    1380:	68 97       	sbiw	r28, 0x18	; 24
    1382:	ff 5f       	subi	r31, 0xFF	; 255
    1384:	68 96       	adiw	r28, 0x18	; 24
					}
					if(zwischenspeicher_wochentag >6){
    1386:	ff af       	std	Y+63, r31	; 0x3f
    1388:	68 97       	sbiw	r28, 0x18	; 24
    138a:	68 96       	adiw	r28, 0x18	; 24
    138c:	2f ad       	ldd	r18, Y+63	; 0x3f
    138e:	68 97       	sbiw	r28, 0x18	; 24
						zwischenspeicher_wochentag = 0;
    1390:	27 30       	cpi	r18, 0x07	; 7
    1392:	18 f0       	brcs	.+6      	; 0x139a <__EEPROM_REGION_LENGTH__+0x39a>
    1394:	68 96       	adiw	r28, 0x18	; 24
					}
					lcdWriteText(0,3,"%s",week_days[zwischenspeicher_wochentag]);
    1396:	1f ae       	std	Y+63, r1	; 0x3f
    1398:	68 97       	sbiw	r28, 0x18	; 24
    139a:	68 96       	adiw	r28, 0x18	; 24
    139c:	3f ad       	ldd	r19, Y+63	; 0x3f
    139e:	68 97       	sbiw	r28, 0x18	; 24
    13a0:	e3 2f       	mov	r30, r19
    13a2:	f0 e0       	ldi	r31, 0x00	; 0
    13a4:	ee 0f       	add	r30, r30
    13a6:	ff 1f       	adc	r31, r31
    13a8:	81 e0       	ldi	r24, 0x01	; 1
    13aa:	90 e0       	ldi	r25, 0x00	; 0
    13ac:	8c 0f       	add	r24, r28
    13ae:	9d 1f       	adc	r25, r29
    13b0:	e8 0f       	add	r30, r24
    13b2:	f9 1f       	adc	r31, r25
    13b4:	85 85       	ldd	r24, Z+13	; 0x0d
    13b6:	8f 93       	push	r24
    13b8:	84 85       	ldd	r24, Z+12	; 0x0c
    13ba:	8f 93       	push	r24
    13bc:	85 e3       	ldi	r24, 0x35	; 53
    13be:	92 e0       	ldi	r25, 0x02	; 2
    13c0:	9f 93       	push	r25
    13c2:	8f 93       	push	r24
    13c4:	83 e0       	ldi	r24, 0x03	; 3
    13c6:	8f 93       	push	r24
    13c8:	1f 92       	push	r1
					if(button_c){
    13ca:	a3 d1       	rcall	.+838    	; 0x1712 <lcdWriteText>
    13cc:	0f 90       	pop	r0
    13ce:	0f 90       	pop	r0
    13d0:	0f 90       	pop	r0
    13d2:	0f 90       	pop	r0
    13d4:	0f 90       	pop	r0
    13d6:	0f 90       	pop	r0
    13d8:	eb ad       	ldd	r30, Y+59	; 0x3b
    13da:	fc ad       	ldd	r31, Y+60	; 0x3c
    13dc:	1e 16       	cp	r1, r30
    13de:	1f 06       	cpc	r1, r31
    13e0:	0c f0       	brlt	.+2      	; 0x13e4 <__EEPROM_REGION_LENGTH__+0x3e4>
						lcdWriteText(0,5," ");
    13e2:	5b c0       	rjmp	.+182    	; 0x149a <__EEPROM_REGION_LENGTH__+0x49a>
    13e4:	8b e6       	ldi	r24, 0x6B	; 107
    13e6:	92 e0       	ldi	r25, 0x02	; 2
    13e8:	9f 93       	push	r25
    13ea:	8f 93       	push	r24
    13ec:	85 e0       	ldi	r24, 0x05	; 5
    13ee:	8f 93       	push	r24
    13f0:	1f 92       	push	r1
    13f2:	8f d1       	rcall	.+798    	; 0x1712 <lcdWriteText>
						kalender_modes = 0;
						seconds = zwischenspeicher_sekunden;
						minutes = zwischenspeicher_minuten;
						hour_24h = zwischenspeicher_stunden;
						if(zwischenspeicher_stunden>11){
    13f4:	0f 90       	pop	r0
    13f6:	0f 90       	pop	r0
    13f8:	0f 90       	pop	r0
    13fa:	0f 90       	pop	r0
    13fc:	63 96       	adiw	r28, 0x13	; 19
    13fe:	ff ad       	ldd	r31, Y+63	; 0x3f
    1400:	63 97       	sbiw	r28, 0x13	; 19
    1402:	fc 30       	cpi	r31, 0x0C	; 12
    1404:	08 f4       	brcc	.+2      	; 0x1408 <__EEPROM_REGION_LENGTH__+0x408>
    1406:	4e c0       	rjmp	.+156    	; 0x14a4 <__EEPROM_REGION_LENGTH__+0x4a4>
							hour_12h = zwischenspeicher_stunden - 12;
    1408:	fc 50       	subi	r31, 0x0C	; 12
    140a:	ff a7       	std	Y+47, r31	; 0x2f
						else{
							hour_12h = zwischenspeicher_stunden;
						}
						month = zwischenspeicher_monate;
						date_day = zwischenspeicher_datum;
						day_of_the_week = zwischenspeicher_wochentag;
    140c:	68 96       	adiw	r28, 0x18	; 24
    140e:	2f ad       	ldd	r18, Y+63	; 0x3f
    1410:	68 97       	sbiw	r28, 0x18	; 24
    1412:	2b 96       	adiw	r28, 0x0b	; 11
    1414:	2f af       	std	Y+63, r18	; 0x3f
    1416:	2b 97       	sbiw	r28, 0x0b	; 11
							hour_12h = zwischenspeicher_stunden - 12;
						}
						else{
							hour_12h = zwischenspeicher_stunden;
						}
						month = zwischenspeicher_monate;
    1418:	66 96       	adiw	r28, 0x16	; 22
    141a:	3f ad       	ldd	r19, Y+63	; 0x3f
    141c:	66 97       	sbiw	r28, 0x16	; 22
    141e:	3b a7       	std	Y+43, r19	; 0x2b
						date_day = zwischenspeicher_datum;
    1420:	67 96       	adiw	r28, 0x17	; 23
    1422:	5f ad       	ldd	r21, Y+63	; 0x3f
    1424:	67 97       	sbiw	r28, 0x17	; 23
    1426:	59 ab       	std	Y+49, r21	; 0x31
					}
					lcdWriteText(0,3,"%s",week_days[zwischenspeicher_wochentag]);
					if(button_c){
						lcdWriteText(0,5," ");
						kalender_modes = 0;
						seconds = zwischenspeicher_sekunden;
    1428:	64 96       	adiw	r28, 0x14	; 20
    142a:	6f ad       	ldd	r22, Y+63	; 0x3f
    142c:	64 97       	sbiw	r28, 0x14	; 20
    142e:	68 ab       	std	Y+48, r22	; 0x30
						minutes = zwischenspeicher_minuten;
    1430:	65 96       	adiw	r28, 0x15	; 21
    1432:	8f ad       	ldd	r24, Y+63	; 0x3f
    1434:	65 97       	sbiw	r28, 0x15	; 21
    1436:	8d a7       	std	Y+45, r24	; 0x2d
						hour_24h = zwischenspeicher_stunden;
    1438:	63 96       	adiw	r28, 0x13	; 19
    143a:	9f ad       	ldd	r25, Y+63	; 0x3f
    143c:	63 97       	sbiw	r28, 0x13	; 19
    143e:	9e a7       	std	Y+46, r25	; 0x2e
						zwischenspeicher_wochentag = 0;
					}
					lcdWriteText(0,3,"%s",week_days[zwischenspeicher_wochentag]);
					if(button_c){
						lcdWriteText(0,5," ");
						kalender_modes = 0;
    1440:	2a 96       	adiw	r28, 0x0a	; 10
    1442:	1f ae       	std	Y+63, r1	; 0x3f
    1444:	2a 97       	sbiw	r28, 0x0a	; 10
				clock_modes += 1;
			}
		break;
		
		case 3://Zeitänderungen
			daytime = 5;
    1446:	e5 e0       	ldi	r30, 0x05	; 5
    1448:	29 96       	adiw	r28, 0x09	; 9
    144a:	ef af       	std	Y+63, r30	; 0x3f
    144c:	29 97       	sbiw	r28, 0x09	; 9
						}
						month = zwischenspeicher_monate;
						date_day = zwischenspeicher_datum;
						day_of_the_week = zwischenspeicher_wochentag;
						clock_modes = 0;
						entry_flag = 0;
    144e:	60 96       	adiw	r28, 0x10	; 16
    1450:	1f ae       	std	Y+63, r1	; 0x3f
    1452:	60 97       	sbiw	r28, 0x10	; 16
							hour_12h = zwischenspeicher_stunden;
						}
						month = zwischenspeicher_monate;
						date_day = zwischenspeicher_datum;
						day_of_the_week = zwischenspeicher_wochentag;
						clock_modes = 0;
    1454:	81 2c       	mov	r8, r1
    1456:	4c c0       	rjmp	.+152    	; 0x14f0 <__EEPROM_REGION_LENGTH__+0x4f0>
					}
					if(button_A){
						wecker_minuten += 1;
					}
					if(wecker_minuten>59){
						wecker_minuten = 0;
    1458:	2e 96       	adiw	r28, 0x0e	; 14
    145a:	1f ae       	std	Y+63, r1	; 0x3f
    145c:	2e 97       	sbiw	r28, 0x0e	; 14
    145e:	48 c0       	rjmp	.+144    	; 0x14f0 <__EEPROM_REGION_LENGTH__+0x4f0>
				clock_modes += 1;
			}
		break;
		
		case 3://Zeitänderungen
			daytime = 5;
    1460:	f5 e0       	ldi	r31, 0x05	; 5
    1462:	29 96       	adiw	r28, 0x09	; 9
    1464:	ff af       	std	Y+63, r31	; 0x3f
    1466:	29 97       	sbiw	r28, 0x09	; 9
    1468:	43 c0       	rjmp	.+134    	; 0x14f0 <__EEPROM_REGION_LENGTH__+0x4f0>
					}
					if(button_A){
						zwischenspeicher_sekunden += 1;
					}
					if(zwischenspeicher_sekunden>59){
						zwischenspeicher_sekunden = 0;
    146a:	64 96       	adiw	r28, 0x14	; 20
    146c:	1f ae       	std	Y+63, r1	; 0x3f
				clock_modes += 1;
			}
		break;
		
		case 3://Zeitänderungen
			daytime = 5;
    146e:	64 97       	sbiw	r28, 0x14	; 20
    1470:	25 e0       	ldi	r18, 0x05	; 5
    1472:	29 96       	adiw	r28, 0x09	; 9
    1474:	2f af       	std	Y+63, r18	; 0x3f
					}
					if(button_A){
						zwischenspeicher_stunden += 1;
					}
					if(zwischenspeicher_stunden >23){
						zwischenspeicher_stunden = 0;
    1476:	29 97       	sbiw	r28, 0x09	; 9
    1478:	3b c0       	rjmp	.+118    	; 0x14f0 <__EEPROM_REGION_LENGTH__+0x4f0>
    147a:	63 96       	adiw	r28, 0x13	; 19
				clock_modes += 1;
			}
		break;
		
		case 3://Zeitänderungen
			daytime = 5;
    147c:	1f ae       	std	Y+63, r1	; 0x3f
    147e:	63 97       	sbiw	r28, 0x13	; 19
    1480:	35 e0       	ldi	r19, 0x05	; 5
    1482:	29 96       	adiw	r28, 0x09	; 9
    1484:	3f af       	std	Y+63, r19	; 0x3f
					}
					if(button_A){
						zwischenspeicher_minuten += 1;
					}
					if(zwischenspeicher_minuten > 59){
						zwischenspeicher_minuten = 0;
    1486:	29 97       	sbiw	r28, 0x09	; 9
    1488:	33 c0       	rjmp	.+102    	; 0x14f0 <__EEPROM_REGION_LENGTH__+0x4f0>
    148a:	65 96       	adiw	r28, 0x15	; 21
				clock_modes += 1;
			}
		break;
		
		case 3://Zeitänderungen
			daytime = 5;
    148c:	1f ae       	std	Y+63, r1	; 0x3f
    148e:	65 97       	sbiw	r28, 0x15	; 21
    1490:	55 e0       	ldi	r21, 0x05	; 5
    1492:	29 96       	adiw	r28, 0x09	; 9
    1494:	5f af       	std	Y+63, r21	; 0x3f
    1496:	29 97       	sbiw	r28, 0x09	; 9
    1498:	2b c0       	rjmp	.+86     	; 0x14f0 <__EEPROM_REGION_LENGTH__+0x4f0>
    149a:	65 e0       	ldi	r22, 0x05	; 5
    149c:	29 96       	adiw	r28, 0x09	; 9
    149e:	6f af       	std	Y+63, r22	; 0x3f
						else{
							hour_12h = zwischenspeicher_stunden;
						}
						month = zwischenspeicher_monate;
						date_day = zwischenspeicher_datum;
						day_of_the_week = zwischenspeicher_wochentag;
    14a0:	29 97       	sbiw	r28, 0x09	; 9
    14a2:	26 c0       	rjmp	.+76     	; 0x14f0 <__EEPROM_REGION_LENGTH__+0x4f0>
    14a4:	68 96       	adiw	r28, 0x18	; 24
    14a6:	8f ad       	ldd	r24, Y+63	; 0x3f
    14a8:	68 97       	sbiw	r28, 0x18	; 24
    14aa:	2b 96       	adiw	r28, 0x0b	; 11
							hour_12h = zwischenspeicher_stunden - 12;
						}
						else{
							hour_12h = zwischenspeicher_stunden;
						}
						month = zwischenspeicher_monate;
    14ac:	8f af       	std	Y+63, r24	; 0x3f
    14ae:	2b 97       	sbiw	r28, 0x0b	; 11
    14b0:	66 96       	adiw	r28, 0x16	; 22
    14b2:	9f ad       	ldd	r25, Y+63	; 0x3f
						date_day = zwischenspeicher_datum;
    14b4:	66 97       	sbiw	r28, 0x16	; 22
    14b6:	9b a7       	std	Y+43, r25	; 0x2b
    14b8:	67 96       	adiw	r28, 0x17	; 23
    14ba:	ef ad       	ldd	r30, Y+63	; 0x3f
					}
					lcdWriteText(0,3,"%s",week_days[zwischenspeicher_wochentag]);
					if(button_c){
						lcdWriteText(0,5," ");
						kalender_modes = 0;
						seconds = zwischenspeicher_sekunden;
    14bc:	67 97       	sbiw	r28, 0x17	; 23
    14be:	e9 ab       	std	Y+49, r30	; 0x31
    14c0:	64 96       	adiw	r28, 0x14	; 20
    14c2:	ff ad       	ldd	r31, Y+63	; 0x3f
						minutes = zwischenspeicher_minuten;
    14c4:	64 97       	sbiw	r28, 0x14	; 20
    14c6:	f8 ab       	std	Y+48, r31	; 0x30
    14c8:	65 96       	adiw	r28, 0x15	; 21
    14ca:	2f ad       	ldd	r18, Y+63	; 0x3f
						hour_24h = zwischenspeicher_stunden;
						if(zwischenspeicher_stunden>11){
							hour_12h = zwischenspeicher_stunden - 12;
						}
						else{
							hour_12h = zwischenspeicher_stunden;
    14cc:	65 97       	sbiw	r28, 0x15	; 21
    14ce:	2d a7       	std	Y+45, r18	; 0x2d
    14d0:	63 96       	adiw	r28, 0x13	; 19
    14d2:	3f ad       	ldd	r19, Y+63	; 0x3f
					if(button_c){
						lcdWriteText(0,5," ");
						kalender_modes = 0;
						seconds = zwischenspeicher_sekunden;
						minutes = zwischenspeicher_minuten;
						hour_24h = zwischenspeicher_stunden;
    14d4:	63 97       	sbiw	r28, 0x13	; 19
						zwischenspeicher_wochentag = 0;
					}
					lcdWriteText(0,3,"%s",week_days[zwischenspeicher_wochentag]);
					if(button_c){
						lcdWriteText(0,5," ");
						kalender_modes = 0;
    14d6:	3f a7       	std	Y+47, r19	; 0x2f
    14d8:	3e a7       	std	Y+46, r19	; 0x2e
    14da:	2a 96       	adiw	r28, 0x0a	; 10
				clock_modes += 1;
			}
		break;
		
		case 3://Zeitänderungen
			daytime = 5;
    14dc:	1f ae       	std	Y+63, r1	; 0x3f
    14de:	2a 97       	sbiw	r28, 0x0a	; 10
    14e0:	55 e0       	ldi	r21, 0x05	; 5
    14e2:	29 96       	adiw	r28, 0x09	; 9
						}
						month = zwischenspeicher_monate;
						date_day = zwischenspeicher_datum;
						day_of_the_week = zwischenspeicher_wochentag;
						clock_modes = 0;
						entry_flag = 0;
    14e4:	5f af       	std	Y+63, r21	; 0x3f
    14e6:	29 97       	sbiw	r28, 0x09	; 9
    14e8:	60 96       	adiw	r28, 0x10	; 16
							hour_12h = zwischenspeicher_stunden;
						}
						month = zwischenspeicher_monate;
						date_day = zwischenspeicher_datum;
						day_of_the_week = zwischenspeicher_wochentag;
						clock_modes = 0;
    14ea:	1f ae       	std	Y+63, r1	; 0x3f
				break;
			}
		break;
	}
//Ausgabe
	if(clock_light){
    14ec:	60 97       	sbiw	r28, 0x10	; 16
    14ee:	81 2c       	mov	r8, r1
		lcdLight(255);
    14f0:	77 20       	and	r7, r7
    14f2:	21 f0       	breq	.+8      	; 0x14fc <__EEPROM_REGION_LENGTH__+0x4fc>
    14f4:	8f ef       	ldi	r24, 0xFF	; 255
    14f6:	7b d0       	rcall	.+246    	; 0x15ee <lcdLight>
    14f8:	0c 94 51 01 	jmp	0x2a2	; 0x2a2 <main+0x16e>
	}
	else{
		lcdLight(0);
    14fc:	80 e0       	ldi	r24, 0x00	; 0
    14fe:	77 d0       	rcall	.+238    	; 0x15ee <lcdLight>
    1500:	0c 94 51 01 	jmp	0x2a2	; 0x2a2 <main+0x16e>

00001504 <ledWriteAll>:
            }
        }
        matrix_buffer_pos += breite + Zeichenabstand;           // Position fĂĽr das nĂ¤chste Zeichen berechnen
        str_p++;                                                // Zeichen-Zeiger auf das nĂ¤chste Zeichen richten
    }
}
    1504:	82 b9       	out	0x02, r24	; 2
    1506:	95 b9       	out	0x05, r25	; 5
    1508:	08 95       	ret

0000150a <buttonReadAllPL>:
    150a:	80 91 09 01 	lds	r24, 0x0109	; 0x800109 <__TEXT_REGION_LENGTH__+0x7c0109>
    150e:	08 95       	ret

00001510 <startSystemTimeMs>:
    1510:	83 e0       	ldi	r24, 0x03	; 3
    1512:	84 bd       	out	0x24, r24	; 36
    1514:	8b e0       	ldi	r24, 0x0B	; 11
    1516:	85 bd       	out	0x25, r24	; 37
    1518:	81 e0       	ldi	r24, 0x01	; 1
    151a:	80 93 6e 00 	sts	0x006E, r24	; 0x80006e <__TEXT_REGION_LENGTH__+0x7c006e>
    151e:	89 ef       	ldi	r24, 0xF9	; 249
    1520:	87 bd       	out	0x27, r24	; 39
    1522:	08 95       	ret

00001524 <getSystemTimeMs>:
    1524:	20 91 09 03 	lds	r18, 0x0309	; 0x800309 <systemTimeMs>
    1528:	30 91 0a 03 	lds	r19, 0x030A	; 0x80030a <systemTimeMs+0x1>
    152c:	40 91 0b 03 	lds	r20, 0x030B	; 0x80030b <systemTimeMs+0x2>
    1530:	50 91 0c 03 	lds	r21, 0x030C	; 0x80030c <systemTimeMs+0x3>
    1534:	60 91 0d 03 	lds	r22, 0x030D	; 0x80030d <systemTimeMs+0x4>
    1538:	70 91 0e 03 	lds	r23, 0x030E	; 0x80030e <systemTimeMs+0x5>
    153c:	80 91 0f 03 	lds	r24, 0x030F	; 0x80030f <systemTimeMs+0x6>
    1540:	90 91 10 03 	lds	r25, 0x0310	; 0x800310 <systemTimeMs+0x7>
    1544:	08 95       	ret

00001546 <initAdc>:
    1546:	11 ba       	out	0x11, r1	; 17
    1548:	10 ba       	out	0x10, r1	; 16
    154a:	10 92 08 01 	sts	0x0108, r1	; 0x800108 <__TEXT_REGION_LENGTH__+0x7c0108>
    154e:	10 92 07 01 	sts	0x0107, r1	; 0x800107 <__TEXT_REGION_LENGTH__+0x7c0107>
    1552:	80 e4       	ldi	r24, 0x40	; 64
    1554:	80 93 7c 00 	sts	0x007C, r24	; 0x80007c <__TEXT_REGION_LENGTH__+0x7c007c>
    1558:	8f e0       	ldi	r24, 0x0F	; 15
    155a:	80 93 7e 00 	sts	0x007E, r24	; 0x80007e <__TEXT_REGION_LENGTH__+0x7c007e>
    155e:	8f ef       	ldi	r24, 0xFF	; 255
    1560:	80 93 7d 00 	sts	0x007D, r24	; 0x80007d <__TEXT_REGION_LENGTH__+0x7c007d>
    1564:	87 e8       	ldi	r24, 0x87	; 135
    1566:	80 93 7a 00 	sts	0x007A, r24	; 0x80007a <__TEXT_REGION_LENGTH__+0x7c007a>
    156a:	10 92 7b 00 	sts	0x007B, r1	; 0x80007b <__TEXT_REGION_LENGTH__+0x7c007b>
    156e:	08 95       	ret

00001570 <rgbWrite>:
    1570:	2f ef       	ldi	r18, 0xFF	; 255
    1572:	33 e0       	ldi	r19, 0x03	; 3
    1574:	f9 01       	movw	r30, r18
    1576:	e8 1b       	sub	r30, r24
    1578:	f9 0b       	sbc	r31, r25
    157a:	c9 01       	movw	r24, r18
    157c:	86 1b       	sub	r24, r22
    157e:	97 0b       	sbc	r25, r23
    1580:	24 1b       	sub	r18, r20
    1582:	35 0b       	sbc	r19, r21
    1584:	f0 93 a9 00 	sts	0x00A9, r31	; 0x8000a9 <__TEXT_REGION_LENGTH__+0x7c00a9>
    1588:	e0 93 a8 00 	sts	0x00A8, r30	; 0x8000a8 <__TEXT_REGION_LENGTH__+0x7c00a8>
    158c:	90 93 ab 00 	sts	0x00AB, r25	; 0x8000ab <__TEXT_REGION_LENGTH__+0x7c00ab>
    1590:	80 93 aa 00 	sts	0x00AA, r24	; 0x8000aa <__TEXT_REGION_LENGTH__+0x7c00aa>
    1594:	30 93 ad 00 	sts	0x00AD, r19	; 0x8000ad <__TEXT_REGION_LENGTH__+0x7c00ad>
    1598:	20 93 ac 00 	sts	0x00AC, r18	; 0x8000ac <__TEXT_REGION_LENGTH__+0x7c00ac>
    159c:	08 95       	ret

0000159e <initRgb>:
    159e:	8e ef       	ldi	r24, 0xFE	; 254
    15a0:	80 93 a0 00 	sts	0x00A0, r24	; 0x8000a0 <__TEXT_REGION_LENGTH__+0x7c00a0>
    15a4:	8b e1       	ldi	r24, 0x1B	; 27
    15a6:	80 93 a1 00 	sts	0x00A1, r24	; 0x8000a1 <__TEXT_REGION_LENGTH__+0x7c00a1>
    15aa:	83 e0       	ldi	r24, 0x03	; 3
    15ac:	80 93 a7 00 	sts	0x00A7, r24	; 0x8000a7 <__TEXT_REGION_LENGTH__+0x7c00a7>
    15b0:	8f ef       	ldi	r24, 0xFF	; 255
    15b2:	80 93 a6 00 	sts	0x00A6, r24	; 0x8000a6 <__TEXT_REGION_LENGTH__+0x7c00a6>
    15b6:	40 e0       	ldi	r20, 0x00	; 0
    15b8:	50 e0       	ldi	r21, 0x00	; 0
    15ba:	60 e0       	ldi	r22, 0x00	; 0
    15bc:	70 e0       	ldi	r23, 0x00	; 0
    15be:	80 e0       	ldi	r24, 0x00	; 0
    15c0:	90 e0       	ldi	r25, 0x00	; 0
    15c2:	d6 cf       	rjmp	.-84     	; 0x1570 <rgbWrite>
    15c4:	08 95       	ret

000015c6 <lcdSid>:
    15c6:	88 23       	and	r24, r24
    15c8:	21 f0       	breq	.+8      	; 0x15d2 <lcdSid+0xc>
    15ca:	84 b3       	in	r24, 0x14	; 20
    15cc:	81 60       	ori	r24, 0x01	; 1
    15ce:	84 bb       	out	0x14, r24	; 20
    15d0:	08 95       	ret
    15d2:	84 b3       	in	r24, 0x14	; 20
    15d4:	8e 7f       	andi	r24, 0xFE	; 254
    15d6:	84 bb       	out	0x14, r24	; 20
    15d8:	08 95       	ret

000015da <lcdSclk>:
    15da:	88 23       	and	r24, r24
    15dc:	21 f0       	breq	.+8      	; 0x15e6 <lcdSclk+0xc>
    15de:	84 b3       	in	r24, 0x14	; 20
    15e0:	82 60       	ori	r24, 0x02	; 2
    15e2:	84 bb       	out	0x14, r24	; 20
    15e4:	08 95       	ret
    15e6:	84 b3       	in	r24, 0x14	; 20
    15e8:	8d 7f       	andi	r24, 0xFD	; 253
    15ea:	84 bb       	out	0x14, r24	; 20
    15ec:	08 95       	ret

000015ee <lcdLight>:
    15ee:	81 11       	cpse	r24, r1
    15f0:	04 c0       	rjmp	.+8      	; 0x15fa <lcdLight+0xc>
    15f2:	84 b5       	in	r24, 0x24	; 36
    15f4:	8f 7d       	andi	r24, 0xDF	; 223
    15f6:	84 bd       	out	0x24, r24	; 36
    15f8:	08 95       	ret
    15fa:	94 b5       	in	r25, 0x24	; 36
    15fc:	90 62       	ori	r25, 0x20	; 32
    15fe:	94 bd       	out	0x24, r25	; 36
    1600:	88 bd       	out	0x28, r24	; 40
    1602:	08 95       	ret

00001604 <writeLcdF>:
    1604:	ef 92       	push	r14
    1606:	ff 92       	push	r15
    1608:	0f 93       	push	r16
    160a:	1f 93       	push	r17
    160c:	cf 93       	push	r28
    160e:	df 93       	push	r29
    1610:	7c 01       	movw	r14, r24
    1612:	eb 01       	movw	r28, r22
    1614:	81 e0       	ldi	r24, 0x01	; 1
    1616:	d7 df       	rcall	.-82     	; 0x15c6 <lcdSid>
    1618:	00 e0       	ldi	r16, 0x00	; 0
    161a:	10 e0       	ldi	r17, 0x00	; 0
    161c:	06 c0       	rjmp	.+12     	; 0x162a <writeLcdF+0x26>
    161e:	80 e0       	ldi	r24, 0x00	; 0
    1620:	dc df       	rcall	.-72     	; 0x15da <lcdSclk>
    1622:	81 e0       	ldi	r24, 0x01	; 1
    1624:	da df       	rcall	.-76     	; 0x15da <lcdSclk>
    1626:	0f 5f       	subi	r16, 0xFF	; 255
    1628:	1f 4f       	sbci	r17, 0xFF	; 255
    162a:	05 30       	cpi	r16, 0x05	; 5
    162c:	11 05       	cpc	r17, r1
    162e:	b8 f3       	brcs	.-18     	; 0x161e <writeLcdF+0x1a>
    1630:	80 e0       	ldi	r24, 0x00	; 0
    1632:	c9 df       	rcall	.-110    	; 0x15c6 <lcdSid>
    1634:	80 e0       	ldi	r24, 0x00	; 0
    1636:	d1 df       	rcall	.-94     	; 0x15da <lcdSclk>
    1638:	81 e0       	ldi	r24, 0x01	; 1
    163a:	cf df       	rcall	.-98     	; 0x15da <lcdSclk>
    163c:	83 e4       	ldi	r24, 0x43	; 67
    163e:	e8 16       	cp	r14, r24
    1640:	f1 04       	cpc	r15, r1
    1642:	19 f4       	brne	.+6      	; 0x164a <writeLcdF+0x46>
    1644:	80 e0       	ldi	r24, 0x00	; 0
    1646:	bf df       	rcall	.-130    	; 0x15c6 <lcdSid>
    1648:	02 c0       	rjmp	.+4      	; 0x164e <writeLcdF+0x4a>
    164a:	81 e0       	ldi	r24, 0x01	; 1
    164c:	bc df       	rcall	.-136    	; 0x15c6 <lcdSid>
    164e:	80 e0       	ldi	r24, 0x00	; 0
    1650:	c4 df       	rcall	.-120    	; 0x15da <lcdSclk>
    1652:	81 e0       	ldi	r24, 0x01	; 1
    1654:	c2 df       	rcall	.-124    	; 0x15da <lcdSclk>
    1656:	80 e0       	ldi	r24, 0x00	; 0
    1658:	b6 df       	rcall	.-148    	; 0x15c6 <lcdSid>
    165a:	80 e0       	ldi	r24, 0x00	; 0
    165c:	be df       	rcall	.-132    	; 0x15da <lcdSclk>
    165e:	81 e0       	ldi	r24, 0x01	; 1
    1660:	bc df       	rcall	.-136    	; 0x15da <lcdSclk>
    1662:	00 e0       	ldi	r16, 0x00	; 0
    1664:	10 e0       	ldi	r17, 0x00	; 0
    1666:	11 c0       	rjmp	.+34     	; 0x168a <writeLcdF+0x86>
    1668:	80 e0       	ldi	r24, 0x00	; 0
    166a:	b7 df       	rcall	.-146    	; 0x15da <lcdSclk>
    166c:	c0 ff       	sbrs	r28, 0
    166e:	03 c0       	rjmp	.+6      	; 0x1676 <writeLcdF+0x72>
    1670:	81 e0       	ldi	r24, 0x01	; 1
    1672:	a9 df       	rcall	.-174    	; 0x15c6 <lcdSid>
    1674:	02 c0       	rjmp	.+4      	; 0x167a <writeLcdF+0x76>
    1676:	80 e0       	ldi	r24, 0x00	; 0
    1678:	a6 df       	rcall	.-180    	; 0x15c6 <lcdSid>
    167a:	d6 95       	lsr	r29
    167c:	c7 95       	ror	r28
    167e:	80 e0       	ldi	r24, 0x00	; 0
    1680:	ac df       	rcall	.-168    	; 0x15da <lcdSclk>
    1682:	81 e0       	ldi	r24, 0x01	; 1
    1684:	aa df       	rcall	.-172    	; 0x15da <lcdSclk>
    1686:	0f 5f       	subi	r16, 0xFF	; 255
    1688:	1f 4f       	sbci	r17, 0xFF	; 255
    168a:	04 30       	cpi	r16, 0x04	; 4
    168c:	11 05       	cpc	r17, r1
    168e:	60 f3       	brcs	.-40     	; 0x1668 <writeLcdF+0x64>
    1690:	80 e0       	ldi	r24, 0x00	; 0
    1692:	99 df       	rcall	.-206    	; 0x15c6 <lcdSid>
    1694:	00 e0       	ldi	r16, 0x00	; 0
    1696:	10 e0       	ldi	r17, 0x00	; 0
    1698:	06 c0       	rjmp	.+12     	; 0x16a6 <writeLcdF+0xa2>
    169a:	80 e0       	ldi	r24, 0x00	; 0
    169c:	9e df       	rcall	.-196    	; 0x15da <lcdSclk>
    169e:	81 e0       	ldi	r24, 0x01	; 1
    16a0:	9c df       	rcall	.-200    	; 0x15da <lcdSclk>
    16a2:	0f 5f       	subi	r16, 0xFF	; 255
    16a4:	1f 4f       	sbci	r17, 0xFF	; 255
    16a6:	04 30       	cpi	r16, 0x04	; 4
    16a8:	11 05       	cpc	r17, r1
    16aa:	b8 f3       	brcs	.-18     	; 0x169a <writeLcdF+0x96>
    16ac:	00 e0       	ldi	r16, 0x00	; 0
    16ae:	10 e0       	ldi	r17, 0x00	; 0
    16b0:	11 c0       	rjmp	.+34     	; 0x16d4 <writeLcdF+0xd0>
    16b2:	80 e0       	ldi	r24, 0x00	; 0
    16b4:	92 df       	rcall	.-220    	; 0x15da <lcdSclk>
    16b6:	c0 ff       	sbrs	r28, 0
    16b8:	03 c0       	rjmp	.+6      	; 0x16c0 <writeLcdF+0xbc>
    16ba:	81 e0       	ldi	r24, 0x01	; 1
    16bc:	84 df       	rcall	.-248    	; 0x15c6 <lcdSid>
    16be:	02 c0       	rjmp	.+4      	; 0x16c4 <writeLcdF+0xc0>
    16c0:	80 e0       	ldi	r24, 0x00	; 0
    16c2:	81 df       	rcall	.-254    	; 0x15c6 <lcdSid>
    16c4:	d6 95       	lsr	r29
    16c6:	c7 95       	ror	r28
    16c8:	80 e0       	ldi	r24, 0x00	; 0
    16ca:	87 df       	rcall	.-242    	; 0x15da <lcdSclk>
    16cc:	81 e0       	ldi	r24, 0x01	; 1
    16ce:	85 df       	rcall	.-246    	; 0x15da <lcdSclk>
    16d0:	0f 5f       	subi	r16, 0xFF	; 255
    16d2:	1f 4f       	sbci	r17, 0xFF	; 255
    16d4:	04 30       	cpi	r16, 0x04	; 4
    16d6:	11 05       	cpc	r17, r1
    16d8:	60 f3       	brcs	.-40     	; 0x16b2 <writeLcdF+0xae>
    16da:	80 e0       	ldi	r24, 0x00	; 0
    16dc:	74 df       	rcall	.-280    	; 0x15c6 <lcdSid>
    16de:	c0 e0       	ldi	r28, 0x00	; 0
    16e0:	d0 e0       	ldi	r29, 0x00	; 0
    16e2:	05 c0       	rjmp	.+10     	; 0x16ee <writeLcdF+0xea>
    16e4:	80 e0       	ldi	r24, 0x00	; 0
    16e6:	79 df       	rcall	.-270    	; 0x15da <lcdSclk>
    16e8:	81 e0       	ldi	r24, 0x01	; 1
    16ea:	77 df       	rcall	.-274    	; 0x15da <lcdSclk>
    16ec:	21 96       	adiw	r28, 0x01	; 1
    16ee:	c4 30       	cpi	r28, 0x04	; 4
    16f0:	d1 05       	cpc	r29, r1
    16f2:	c0 f3       	brcs	.-16     	; 0x16e4 <writeLcdF+0xe0>
    16f4:	81 e0       	ldi	r24, 0x01	; 1
    16f6:	67 df       	rcall	.-306    	; 0x15c6 <lcdSid>
    16f8:	87 ec       	ldi	r24, 0xC7	; 199
    16fa:	90 e0       	ldi	r25, 0x00	; 0
    16fc:	01 97       	sbiw	r24, 0x01	; 1
    16fe:	f1 f7       	brne	.-4      	; 0x16fc <writeLcdF+0xf8>
    1700:	00 c0       	rjmp	.+0      	; 0x1702 <writeLcdF+0xfe>
    1702:	00 00       	nop
    1704:	df 91       	pop	r29
    1706:	cf 91       	pop	r28
    1708:	1f 91       	pop	r17
    170a:	0f 91       	pop	r16
    170c:	ff 90       	pop	r15
    170e:	ef 90       	pop	r14
    1710:	08 95       	ret

00001712 <lcdWriteText>:
    1712:	1f 93       	push	r17
    1714:	cf 93       	push	r28
    1716:	df 93       	push	r29
    1718:	cd b7       	in	r28, 0x3d	; 61
    171a:	de b7       	in	r29, 0x3e	; 62
    171c:	65 97       	sbiw	r28, 0x15	; 21
    171e:	0f b6       	in	r0, 0x3f	; 63
    1720:	f8 94       	cli
    1722:	de bf       	out	0x3e, r29	; 62
    1724:	0f be       	out	0x3f, r0	; 63
    1726:	cd bf       	out	0x3d, r28	; 61
    1728:	9e 01       	movw	r18, r28
    172a:	20 5e       	subi	r18, 0xE0	; 224
    172c:	3f 4f       	sbci	r19, 0xFF	; 255
    172e:	4e 8d       	ldd	r20, Y+30	; 0x1e
    1730:	5f 8d       	ldd	r21, Y+31	; 0x1f
    1732:	65 e1       	ldi	r22, 0x15	; 21
    1734:	70 e0       	ldi	r23, 0x00	; 0
    1736:	ce 01       	movw	r24, r28
    1738:	01 96       	adiw	r24, 0x01	; 1
    173a:	be d3       	rcall	.+1916   	; 0x1eb8 <vsnprintf>
    173c:	6d 8d       	ldd	r22, Y+29	; 0x1d
    173e:	8c 8d       	ldd	r24, Y+28	; 0x1c
    1740:	90 e2       	ldi	r25, 0x20	; 32
    1742:	89 9f       	mul	r24, r25
    1744:	60 0d       	add	r22, r0
    1746:	11 24       	eor	r1, r1
    1748:	60 68       	ori	r22, 0x80	; 128
    174a:	70 e0       	ldi	r23, 0x00	; 0
    174c:	83 e4       	ldi	r24, 0x43	; 67
    174e:	90 e0       	ldi	r25, 0x00	; 0
    1750:	59 df       	rcall	.-334    	; 0x1604 <writeLcdF>
    1752:	10 e0       	ldi	r17, 0x00	; 0
    1754:	05 c0       	rjmp	.+10     	; 0x1760 <lcdWriteText+0x4e>
    1756:	1f 5f       	subi	r17, 0xFF	; 255
    1758:	70 e0       	ldi	r23, 0x00	; 0
    175a:	84 e4       	ldi	r24, 0x44	; 68
    175c:	90 e0       	ldi	r25, 0x00	; 0
    175e:	52 df       	rcall	.-348    	; 0x1604 <writeLcdF>
    1760:	e1 e0       	ldi	r30, 0x01	; 1
    1762:	f0 e0       	ldi	r31, 0x00	; 0
    1764:	ec 0f       	add	r30, r28
    1766:	fd 1f       	adc	r31, r29
    1768:	e1 0f       	add	r30, r17
    176a:	f1 1d       	adc	r31, r1
    176c:	60 81       	ld	r22, Z
    176e:	61 11       	cpse	r22, r1
    1770:	f2 cf       	rjmp	.-28     	; 0x1756 <lcdWriteText+0x44>
    1772:	65 96       	adiw	r28, 0x15	; 21
    1774:	0f b6       	in	r0, 0x3f	; 63
    1776:	f8 94       	cli
    1778:	de bf       	out	0x3e, r29	; 62
    177a:	0f be       	out	0x3f, r0	; 63
    177c:	cd bf       	out	0x3d, r28	; 61
    177e:	df 91       	pop	r29
    1780:	cf 91       	pop	r28
    1782:	1f 91       	pop	r17
    1784:	08 95       	ret

00001786 <lcdCreateCustomChar>:
    1786:	0f 93       	push	r16
    1788:	1f 93       	push	r17
    178a:	cf 93       	push	r28
    178c:	9f ef       	ldi	r25, 0xFF	; 255
    178e:	98 0f       	add	r25, r24
    1790:	97 30       	cpi	r25, 0x07	; 7
    1792:	d8 f4       	brcc	.+54     	; 0x17ca <lcdCreateCustomChar+0x44>
    1794:	8b 01       	movw	r16, r22
    1796:	68 2f       	mov	r22, r24
    1798:	70 e0       	ldi	r23, 0x00	; 0
    179a:	66 0f       	add	r22, r22
    179c:	77 1f       	adc	r23, r23
    179e:	66 0f       	add	r22, r22
    17a0:	77 1f       	adc	r23, r23
    17a2:	66 0f       	add	r22, r22
    17a4:	77 1f       	adc	r23, r23
    17a6:	60 64       	ori	r22, 0x40	; 64
    17a8:	83 e4       	ldi	r24, 0x43	; 67
    17aa:	90 e0       	ldi	r25, 0x00	; 0
    17ac:	2b df       	rcall	.-426    	; 0x1604 <writeLcdF>
    17ae:	c0 e0       	ldi	r28, 0x00	; 0
    17b0:	09 c0       	rjmp	.+18     	; 0x17c4 <lcdCreateCustomChar+0x3e>
    17b2:	f8 01       	movw	r30, r16
    17b4:	ec 0f       	add	r30, r28
    17b6:	f1 1d       	adc	r31, r1
    17b8:	60 81       	ld	r22, Z
    17ba:	70 e0       	ldi	r23, 0x00	; 0
    17bc:	84 e4       	ldi	r24, 0x44	; 68
    17be:	90 e0       	ldi	r25, 0x00	; 0
    17c0:	21 df       	rcall	.-446    	; 0x1604 <writeLcdF>
    17c2:	cf 5f       	subi	r28, 0xFF	; 255
    17c4:	c8 30       	cpi	r28, 0x08	; 8
    17c6:	a8 f3       	brcs	.-22     	; 0x17b2 <lcdCreateCustomChar+0x2c>
    17c8:	01 c0       	rjmp	.+2      	; 0x17cc <lcdCreateCustomChar+0x46>
    17ca:	ff cf       	rjmp	.-2      	; 0x17ca <lcdCreateCustomChar+0x44>
    17cc:	cf 91       	pop	r28
    17ce:	1f 91       	pop	r17
    17d0:	0f 91       	pop	r16
    17d2:	08 95       	ret

000017d4 <lcdWriteZahl>:
    17d4:	2f 92       	push	r2
    17d6:	3f 92       	push	r3
    17d8:	4f 92       	push	r4
    17da:	5f 92       	push	r5
    17dc:	6f 92       	push	r6
    17de:	7f 92       	push	r7
    17e0:	8f 92       	push	r8
    17e2:	9f 92       	push	r9
    17e4:	af 92       	push	r10
    17e6:	bf 92       	push	r11
    17e8:	cf 92       	push	r12
    17ea:	df 92       	push	r13
    17ec:	ef 92       	push	r14
    17ee:	ff 92       	push	r15
    17f0:	0f 93       	push	r16
    17f2:	1f 93       	push	r17
    17f4:	cf 93       	push	r28
    17f6:	df 93       	push	r29
    17f8:	cd b7       	in	r28, 0x3d	; 61
    17fa:	de b7       	in	r29, 0x3e	; 62
    17fc:	e4 97       	sbiw	r28, 0x34	; 52
    17fe:	0f b6       	in	r0, 0x3f	; 63
    1800:	f8 94       	cli
    1802:	de bf       	out	0x3e, r29	; 62
    1804:	0f be       	out	0x3f, r0	; 63
    1806:	cd bf       	out	0x3d, r28	; 61
    1808:	88 ab       	std	Y+48, r24	; 0x30
    180a:	69 ab       	std	Y+49, r22	; 0x31
    180c:	eb a6       	std	Y+43, r14	; 0x2b
    180e:	fc a6       	std	Y+44, r15	; 0x2c
    1810:	50 2e       	mov	r5, r16
    1812:	41 2e       	mov	r4, r17
    1814:	2d a7       	std	Y+45, r18	; 0x2d
    1816:	3a ab       	std	Y+50, r19	; 0x32
    1818:	34 2e       	mov	r3, r20
    181a:	25 2e       	mov	r2, r21
    181c:	7c 2c       	mov	r7, r12
    181e:	ae a6       	std	Y+46, r10	; 0x2e
    1820:	2a 2d       	mov	r18, r10
    1822:	2c 0d       	add	r18, r12
    1824:	2f a7       	std	Y+47, r18	; 0x2f
    1826:	25 31       	cpi	r18, 0x15	; 21
    1828:	70 f0       	brcs	.+28     	; 0x1846 <lcdWriteZahl+0x72>
    182a:	8b e9       	ldi	r24, 0x9B	; 155
    182c:	92 e0       	ldi	r25, 0x02	; 2
    182e:	9f 93       	push	r25
    1830:	8f 93       	push	r24
    1832:	89 a9       	ldd	r24, Y+49	; 0x31
    1834:	8f 93       	push	r24
    1836:	28 a9       	ldd	r18, Y+48	; 0x30
    1838:	2f 93       	push	r18
    183a:	6b df       	rcall	.-298    	; 0x1712 <lcdWriteText>
    183c:	0f 90       	pop	r0
    183e:	0f 90       	pop	r0
    1840:	0f 90       	pop	r0
    1842:	0f 90       	pop	r0
    1844:	af c0       	rjmp	.+350    	; 0x19a4 <lcdWriteZahl+0x1d0>
    1846:	8e a5       	ldd	r24, Y+46	; 0x2e
    1848:	81 11       	cpse	r24, r1
    184a:	02 c0       	rjmp	.+4      	; 0x1850 <lcdWriteZahl+0x7c>
    184c:	1c aa       	std	Y+52, r1	; 0x34
    184e:	02 c0       	rjmp	.+4      	; 0x1854 <lcdWriteZahl+0x80>
    1850:	21 e0       	ldi	r18, 0x01	; 1
    1852:	2c ab       	std	Y+52, r18	; 0x34
    1854:	61 2c       	mov	r6, r1
    1856:	7b aa       	std	Y+51, r7	; 0x33
    1858:	76 2c       	mov	r7, r6
    185a:	6a a8       	ldd	r6, Y+50	; 0x32
    185c:	33 c0       	rjmp	.+102    	; 0x18c4 <lcdWriteZahl+0xf0>
    185e:	83 e1       	ldi	r24, 0x13	; 19
    1860:	90 e0       	ldi	r25, 0x00	; 0
    1862:	4c 01       	movw	r8, r24
    1864:	87 18       	sub	r8, r7
    1866:	91 08       	sbc	r9, r1
    1868:	0f 2e       	mov	r0, r31
    186a:	fa e0       	ldi	r31, 0x0A	; 10
    186c:	af 2e       	mov	r10, r31
    186e:	f0 2d       	mov	r31, r0
    1870:	b1 2c       	mov	r11, r1
    1872:	c1 2c       	mov	r12, r1
    1874:	d1 2c       	mov	r13, r1
    1876:	e1 2c       	mov	r14, r1
    1878:	f1 2c       	mov	r15, r1
    187a:	00 e0       	ldi	r16, 0x00	; 0
    187c:	10 e0       	ldi	r17, 0x00	; 0
    187e:	2b a5       	ldd	r18, Y+43	; 0x2b
    1880:	3c a5       	ldd	r19, Y+44	; 0x2c
    1882:	45 2d       	mov	r20, r5
    1884:	54 2d       	mov	r21, r4
    1886:	6d a5       	ldd	r22, Y+45	; 0x2d
    1888:	76 2d       	mov	r23, r6
    188a:	83 2d       	mov	r24, r3
    188c:	92 2d       	mov	r25, r2
    188e:	95 d2       	rcall	.+1322   	; 0x1dba <__umoddi3>
    1890:	e1 e0       	ldi	r30, 0x01	; 1
    1892:	f0 e0       	ldi	r31, 0x00	; 0
    1894:	ec 0f       	add	r30, r28
    1896:	fd 1f       	adc	r31, r29
    1898:	e8 0d       	add	r30, r8
    189a:	f9 1d       	adc	r31, r9
    189c:	20 5d       	subi	r18, 0xD0	; 208
    189e:	20 83       	st	Z, r18
    18a0:	2b a5       	ldd	r18, Y+43	; 0x2b
    18a2:	3c a5       	ldd	r19, Y+44	; 0x2c
    18a4:	45 2d       	mov	r20, r5
    18a6:	54 2d       	mov	r21, r4
    18a8:	6d a5       	ldd	r22, Y+45	; 0x2d
    18aa:	76 2d       	mov	r23, r6
    18ac:	83 2d       	mov	r24, r3
    18ae:	92 2d       	mov	r25, r2
    18b0:	86 d2       	rcall	.+1292   	; 0x1dbe <__udivdi3>
    18b2:	2b a7       	std	Y+43, r18	; 0x2b
    18b4:	3c a7       	std	Y+44, r19	; 0x2c
    18b6:	54 2e       	mov	r5, r20
    18b8:	45 2e       	mov	r4, r21
    18ba:	6d a7       	std	Y+45, r22	; 0x2d
    18bc:	67 2e       	mov	r6, r23
    18be:	38 2e       	mov	r3, r24
    18c0:	29 2e       	mov	r2, r25
    18c2:	73 94       	inc	r7
    18c4:	83 e1       	ldi	r24, 0x13	; 19
    18c6:	87 15       	cp	r24, r7
    18c8:	50 f6       	brcc	.-108    	; 0x185e <lcdWriteZahl+0x8a>
    18ca:	7b a8       	ldd	r7, Y+51	; 0x33
    18cc:	94 e1       	ldi	r25, 0x14	; 20
    18ce:	2f a5       	ldd	r18, Y+47	; 0x2f
    18d0:	92 1b       	sub	r25, r18
    18d2:	80 e0       	ldi	r24, 0x00	; 0
    18d4:	20 e0       	ldi	r18, 0x00	; 0
    18d6:	11 c0       	rjmp	.+34     	; 0x18fa <lcdWriteZahl+0x126>
    18d8:	e1 e0       	ldi	r30, 0x01	; 1
    18da:	f0 e0       	ldi	r31, 0x00	; 0
    18dc:	ec 0f       	add	r30, r28
    18de:	fd 1f       	adc	r31, r29
    18e0:	e9 0f       	add	r30, r25
    18e2:	f1 1d       	adc	r31, r1
    18e4:	30 81       	ld	r19, Z
    18e6:	e5 e1       	ldi	r30, 0x15	; 21
    18e8:	f0 e0       	ldi	r31, 0x00	; 0
    18ea:	ec 0f       	add	r30, r28
    18ec:	fd 1f       	adc	r31, r29
    18ee:	e8 0f       	add	r30, r24
    18f0:	f1 1d       	adc	r31, r1
    18f2:	30 83       	st	Z, r19
    18f4:	8f 5f       	subi	r24, 0xFF	; 255
    18f6:	9f 5f       	subi	r25, 0xFF	; 255
    18f8:	2f 5f       	subi	r18, 0xFF	; 255
    18fa:	27 15       	cp	r18, r7
    18fc:	68 f3       	brcs	.-38     	; 0x18d8 <lcdWriteZahl+0x104>
    18fe:	2c a9       	ldd	r18, Y+52	; 0x34
    1900:	22 23       	and	r18, r18
    1902:	49 f0       	breq	.+18     	; 0x1916 <lcdWriteZahl+0x142>
    1904:	e5 e1       	ldi	r30, 0x15	; 21
    1906:	f0 e0       	ldi	r31, 0x00	; 0
    1908:	ec 0f       	add	r30, r28
    190a:	fd 1f       	adc	r31, r29
    190c:	e8 0f       	add	r30, r24
    190e:	f1 1d       	adc	r31, r1
    1910:	2e e2       	ldi	r18, 0x2E	; 46
    1912:	20 83       	st	Z, r18
    1914:	8f 5f       	subi	r24, 0xFF	; 255
    1916:	20 e0       	ldi	r18, 0x00	; 0
    1918:	4e a5       	ldd	r20, Y+46	; 0x2e
    191a:	11 c0       	rjmp	.+34     	; 0x193e <lcdWriteZahl+0x16a>
    191c:	e1 e0       	ldi	r30, 0x01	; 1
    191e:	f0 e0       	ldi	r31, 0x00	; 0
    1920:	ec 0f       	add	r30, r28
    1922:	fd 1f       	adc	r31, r29
    1924:	e9 0f       	add	r30, r25
    1926:	f1 1d       	adc	r31, r1
    1928:	30 81       	ld	r19, Z
    192a:	e5 e1       	ldi	r30, 0x15	; 21
    192c:	f0 e0       	ldi	r31, 0x00	; 0
    192e:	ec 0f       	add	r30, r28
    1930:	fd 1f       	adc	r31, r29
    1932:	e8 0f       	add	r30, r24
    1934:	f1 1d       	adc	r31, r1
    1936:	30 83       	st	Z, r19
    1938:	8f 5f       	subi	r24, 0xFF	; 255
    193a:	9f 5f       	subi	r25, 0xFF	; 255
    193c:	2f 5f       	subi	r18, 0xFF	; 255
    193e:	24 17       	cp	r18, r20
    1940:	68 f3       	brcs	.-38     	; 0x191c <lcdWriteZahl+0x148>
    1942:	e5 e1       	ldi	r30, 0x15	; 21
    1944:	f0 e0       	ldi	r31, 0x00	; 0
    1946:	ec 0f       	add	r30, r28
    1948:	fd 1f       	adc	r31, r29
    194a:	e8 0f       	add	r30, r24
    194c:	f1 1d       	adc	r31, r1
    194e:	10 82       	st	Z, r1
    1950:	40 e0       	ldi	r20, 0x00	; 0
    1952:	09 c0       	rjmp	.+18     	; 0x1966 <lcdWriteZahl+0x192>
    1954:	4f 5f       	subi	r20, 0xFF	; 255
    1956:	e5 e1       	ldi	r30, 0x15	; 21
    1958:	f0 e0       	ldi	r31, 0x00	; 0
    195a:	ec 0f       	add	r30, r28
    195c:	fd 1f       	adc	r31, r29
    195e:	e8 0f       	add	r30, r24
    1960:	f9 1f       	adc	r31, r25
    1962:	20 e2       	ldi	r18, 0x20	; 32
    1964:	20 83       	st	Z, r18
    1966:	84 2f       	mov	r24, r20
    1968:	90 e0       	ldi	r25, 0x00	; 0
    196a:	e5 e1       	ldi	r30, 0x15	; 21
    196c:	f0 e0       	ldi	r31, 0x00	; 0
    196e:	ec 0f       	add	r30, r28
    1970:	fd 1f       	adc	r31, r29
    1972:	e8 0f       	add	r30, r24
    1974:	f9 1f       	adc	r31, r25
    1976:	20 81       	ld	r18, Z
    1978:	20 33       	cpi	r18, 0x30	; 48
    197a:	39 f4       	brne	.+14     	; 0x198a <lcdWriteZahl+0x1b6>
    197c:	27 2d       	mov	r18, r7
    197e:	30 e0       	ldi	r19, 0x00	; 0
    1980:	21 50       	subi	r18, 0x01	; 1
    1982:	31 09       	sbc	r19, r1
    1984:	82 17       	cp	r24, r18
    1986:	93 07       	cpc	r25, r19
    1988:	2c f3       	brlt	.-54     	; 0x1954 <lcdWriteZahl+0x180>
    198a:	ce 01       	movw	r24, r28
    198c:	45 96       	adiw	r24, 0x15	; 21
    198e:	9f 93       	push	r25
    1990:	8f 93       	push	r24
    1992:	89 a9       	ldd	r24, Y+49	; 0x31
    1994:	8f 93       	push	r24
    1996:	28 a9       	ldd	r18, Y+48	; 0x30
    1998:	2f 93       	push	r18
    199a:	bb de       	rcall	.-650    	; 0x1712 <lcdWriteText>
    199c:	0f 90       	pop	r0
    199e:	0f 90       	pop	r0
    19a0:	0f 90       	pop	r0
    19a2:	0f 90       	pop	r0
    19a4:	e4 96       	adiw	r28, 0x34	; 52
    19a6:	0f b6       	in	r0, 0x3f	; 63
    19a8:	f8 94       	cli
    19aa:	de bf       	out	0x3e, r29	; 62
    19ac:	0f be       	out	0x3f, r0	; 63
    19ae:	cd bf       	out	0x3d, r28	; 61
    19b0:	df 91       	pop	r29
    19b2:	cf 91       	pop	r28
    19b4:	1f 91       	pop	r17
    19b6:	0f 91       	pop	r16
    19b8:	ff 90       	pop	r15
    19ba:	ef 90       	pop	r14
    19bc:	df 90       	pop	r13
    19be:	cf 90       	pop	r12
    19c0:	bf 90       	pop	r11
    19c2:	af 90       	pop	r10
    19c4:	9f 90       	pop	r9
    19c6:	8f 90       	pop	r8
    19c8:	7f 90       	pop	r7
    19ca:	6f 90       	pop	r6
    19cc:	5f 90       	pop	r5
    19ce:	4f 90       	pop	r4
    19d0:	3f 90       	pop	r3
    19d2:	2f 90       	pop	r2
    19d4:	08 95       	ret

000019d6 <lcdClear>:
    19d6:	61 e0       	ldi	r22, 0x01	; 1
    19d8:	70 e0       	ldi	r23, 0x00	; 0
    19da:	83 e4       	ldi	r24, 0x43	; 67
    19dc:	90 e0       	ldi	r25, 0x00	; 0
    19de:	12 de       	rcall	.-988    	; 0x1604 <writeLcdF>
    19e0:	8f e3       	ldi	r24, 0x3F	; 63
    19e2:	9f e1       	ldi	r25, 0x1F	; 31
    19e4:	01 97       	sbiw	r24, 0x01	; 1
    19e6:	f1 f7       	brne	.-4      	; 0x19e4 <lcdClear+0xe>
    19e8:	00 c0       	rjmp	.+0      	; 0x19ea <lcdClear+0x14>
    19ea:	00 00       	nop
    19ec:	8b e6       	ldi	r24, 0x6B	; 107
    19ee:	92 e0       	ldi	r25, 0x02	; 2
    19f0:	9f 93       	push	r25
    19f2:	8f 93       	push	r24
    19f4:	1f 92       	push	r1
    19f6:	1f 92       	push	r1
    19f8:	8c de       	rcall	.-744    	; 0x1712 <lcdWriteText>
    19fa:	0f 90       	pop	r0
    19fc:	0f 90       	pop	r0
    19fe:	0f 90       	pop	r0
    1a00:	0f 90       	pop	r0
    1a02:	08 95       	ret

00001a04 <initLcd>:
    1a04:	81 e0       	ldi	r24, 0x01	; 1
    1a06:	e9 dd       	rcall	.-1070   	; 0x15da <lcdSclk>
    1a08:	80 e0       	ldi	r24, 0x00	; 0
    1a0a:	dd dd       	rcall	.-1094   	; 0x15c6 <lcdSid>
    1a0c:	64 e3       	ldi	r22, 0x34	; 52
    1a0e:	70 e0       	ldi	r23, 0x00	; 0
    1a10:	83 e4       	ldi	r24, 0x43	; 67
    1a12:	90 e0       	ldi	r25, 0x00	; 0
    1a14:	f7 dd       	rcall	.-1042   	; 0x1604 <writeLcdF>
    1a16:	69 e0       	ldi	r22, 0x09	; 9
    1a18:	70 e0       	ldi	r23, 0x00	; 0
    1a1a:	83 e4       	ldi	r24, 0x43	; 67
    1a1c:	90 e0       	ldi	r25, 0x00	; 0
    1a1e:	f2 dd       	rcall	.-1052   	; 0x1604 <writeLcdF>
    1a20:	60 e3       	ldi	r22, 0x30	; 48
    1a22:	70 e0       	ldi	r23, 0x00	; 0
    1a24:	83 e4       	ldi	r24, 0x43	; 67
    1a26:	90 e0       	ldi	r25, 0x00	; 0
    1a28:	ed dd       	rcall	.-1062   	; 0x1604 <writeLcdF>
    1a2a:	6c e0       	ldi	r22, 0x0C	; 12
    1a2c:	70 e0       	ldi	r23, 0x00	; 0
    1a2e:	83 e4       	ldi	r24, 0x43	; 67
    1a30:	90 e0       	ldi	r25, 0x00	; 0
    1a32:	e8 dd       	rcall	.-1072   	; 0x1604 <writeLcdF>
    1a34:	d0 df       	rcall	.-96     	; 0x19d6 <lcdClear>
    1a36:	67 e0       	ldi	r22, 0x07	; 7
    1a38:	70 e0       	ldi	r23, 0x00	; 0
    1a3a:	83 e4       	ldi	r24, 0x43	; 67
    1a3c:	90 e0       	ldi	r25, 0x00	; 0
    1a3e:	e2 dd       	rcall	.-1084   	; 0x1604 <writeLcdF>
    1a40:	80 e0       	ldi	r24, 0x00	; 0
    1a42:	d5 cd       	rjmp	.-1110   	; 0x15ee <lcdLight>
    1a44:	08 95       	ret

00001a46 <initBoard>:
    1a46:	ff 92       	push	r15
    1a48:	0f 93       	push	r16
    1a4a:	1f 93       	push	r17
    1a4c:	cf 93       	push	r28
    1a4e:	df 93       	push	r29
    1a50:	c8 2f       	mov	r28, r24
    1a52:	85 b7       	in	r24, 0x35	; 53
    1a54:	85 bf       	out	0x35, r24	; 53
    1a56:	12 b8       	out	0x02, r1	; 2
    1a58:	8f ef       	ldi	r24, 0xFF	; 255
    1a5a:	81 b9       	out	0x01, r24	; 1
    1a5c:	15 b8       	out	0x05, r1	; 5
    1a5e:	84 b9       	out	0x04, r24	; 4
    1a60:	88 b9       	out	0x08, r24	; 8
    1a62:	17 b8       	out	0x07, r1	; 7
    1a64:	8b b9       	out	0x0b, r24	; 11
    1a66:	1a b8       	out	0x0a, r1	; 10
    1a68:	8e b9       	out	0x0e, r24	; 14
    1a6a:	1d b8       	out	0x0d, r1	; 13
    1a6c:	9e b1       	in	r25, 0x0e	; 14
    1a6e:	9b 7f       	andi	r25, 0xFB	; 251
    1a70:	9e b9       	out	0x0e, r25	; 14
    1a72:	11 ba       	out	0x11, r1	; 17
    1a74:	10 ba       	out	0x10, r1	; 16
    1a76:	94 e0       	ldi	r25, 0x04	; 4
    1a78:	94 bb       	out	0x14, r25	; 20
    1a7a:	93 b3       	in	r25, 0x13	; 19
    1a7c:	93 60       	ori	r25, 0x03	; 3
    1a7e:	93 bb       	out	0x13, r25	; 19
    1a80:	93 b3       	in	r25, 0x13	; 19
    1a82:	90 62       	ori	r25, 0x20	; 32
    1a84:	93 bb       	out	0x13, r25	; 19
    1a86:	97 ec       	ldi	r25, 0xC7	; 199
    1a88:	90 93 02 01 	sts	0x0102, r25	; 0x800102 <__TEXT_REGION_LENGTH__+0x7c0102>
    1a8c:	98 e3       	ldi	r25, 0x38	; 56
    1a8e:	90 93 01 01 	sts	0x0101, r25	; 0x800101 <__TEXT_REGION_LENGTH__+0x7c0101>
    1a92:	10 92 05 01 	sts	0x0105, r1	; 0x800105 <__TEXT_REGION_LENGTH__+0x7c0105>
    1a96:	80 93 04 01 	sts	0x0104, r24	; 0x800104 <__TEXT_REGION_LENGTH__+0x7c0104>
    1a9a:	10 92 08 01 	sts	0x0108, r1	; 0x800108 <__TEXT_REGION_LENGTH__+0x7c0108>
    1a9e:	10 92 07 01 	sts	0x0107, r1	; 0x800107 <__TEXT_REGION_LENGTH__+0x7c0107>
    1aa2:	8c e3       	ldi	r24, 0x3C	; 60
    1aa4:	80 93 0b 01 	sts	0x010B, r24	; 0x80010b <__TEXT_REGION_LENGTH__+0x7c010b>
    1aa8:	10 92 0a 01 	sts	0x010A, r1	; 0x80010a <__TEXT_REGION_LENGTH__+0x7c010a>
    1aac:	78 94       	sei
    1aae:	30 dd       	rcall	.-1440   	; 0x1510 <startSystemTimeMs>
    1ab0:	a9 df       	rcall	.-174    	; 0x1a04 <initLcd>
    1ab2:	49 dd       	rcall	.-1390   	; 0x1546 <initAdc>
    1ab4:	74 dd       	rcall	.-1304   	; 0x159e <initRgb>
    1ab6:	cc 23       	and	r28, r28
    1ab8:	09 f4       	brne	.+2      	; 0x1abc <initBoard+0x76>
    1aba:	a3 c0       	rjmp	.+326    	; 0x1c02 <initBoard+0x1bc>
    1abc:	8f ef       	ldi	r24, 0xFF	; 255
    1abe:	97 dd       	rcall	.-1234   	; 0x15ee <lcdLight>
    1ac0:	40 e0       	ldi	r20, 0x00	; 0
    1ac2:	50 e0       	ldi	r21, 0x00	; 0
    1ac4:	6f ef       	ldi	r22, 0xFF	; 255
    1ac6:	73 e0       	ldi	r23, 0x03	; 3
    1ac8:	80 e0       	ldi	r24, 0x00	; 0
    1aca:	90 e0       	ldi	r25, 0x00	; 0
    1acc:	51 dd       	rcall	.-1374   	; 0x1570 <rgbWrite>
    1ace:	80 eb       	ldi	r24, 0xB0	; 176
    1ad0:	92 e0       	ldi	r25, 0x02	; 2
    1ad2:	9f 93       	push	r25
    1ad4:	8f 93       	push	r24
    1ad6:	1f 92       	push	r1
    1ad8:	1f 92       	push	r1
    1ada:	1b de       	rcall	.-970    	; 0x1712 <lcdWriteText>
    1adc:	85 ec       	ldi	r24, 0xC5	; 197
    1ade:	92 e0       	ldi	r25, 0x02	; 2
    1ae0:	9f 93       	push	r25
    1ae2:	8f 93       	push	r24
    1ae4:	1f 92       	push	r1
    1ae6:	81 e0       	ldi	r24, 0x01	; 1
    1ae8:	8f 93       	push	r24
    1aea:	13 de       	rcall	.-986    	; 0x1712 <lcdWriteText>
    1aec:	8b e9       	ldi	r24, 0x9B	; 155
    1aee:	92 e0       	ldi	r25, 0x02	; 2
    1af0:	9f 93       	push	r25
    1af2:	8f 93       	push	r24
    1af4:	1f 92       	push	r1
    1af6:	82 e0       	ldi	r24, 0x02	; 2
    1af8:	8f 93       	push	r24
    1afa:	0b de       	rcall	.-1002   	; 0x1712 <lcdWriteText>
    1afc:	8a ed       	ldi	r24, 0xDA	; 218
    1afe:	92 e0       	ldi	r25, 0x02	; 2
    1b00:	9f 93       	push	r25
    1b02:	8f 93       	push	r24
    1b04:	1f 92       	push	r1
    1b06:	83 e0       	ldi	r24, 0x03	; 3
    1b08:	8f 93       	push	r24
    1b0a:	03 de       	rcall	.-1018   	; 0x1712 <lcdWriteText>
    1b0c:	8d b7       	in	r24, 0x3d	; 61
    1b0e:	9e b7       	in	r25, 0x3e	; 62
    1b10:	40 96       	adiw	r24, 0x10	; 16
    1b12:	0f b6       	in	r0, 0x3f	; 63
    1b14:	f8 94       	cli
    1b16:	9e bf       	out	0x3e, r25	; 62
    1b18:	0f be       	out	0x3f, r0	; 63
    1b1a:	8d bf       	out	0x3d, r24	; 61
    1b1c:	ff 24       	eor	r15, r15
    1b1e:	f3 94       	inc	r15
    1b20:	c0 e0       	ldi	r28, 0x00	; 0
    1b22:	10 e0       	ldi	r17, 0x00	; 0
    1b24:	01 e0       	ldi	r16, 0x01	; 1
    1b26:	d0 e0       	ldi	r29, 0x00	; 0
    1b28:	00 23       	and	r16, r16
    1b2a:	51 f0       	breq	.+20     	; 0x1b40 <initBoard+0xfa>
    1b2c:	80 e0       	ldi	r24, 0x00	; 0
    1b2e:	90 e8       	ldi	r25, 0x80	; 128
    1b30:	0d 2e       	mov	r0, r29
    1b32:	02 c0       	rjmp	.+4      	; 0x1b38 <initBoard+0xf2>
    1b34:	96 95       	lsr	r25
    1b36:	87 95       	ror	r24
    1b38:	0a 94       	dec	r0
    1b3a:	e2 f7       	brpl	.-8      	; 0x1b34 <initBoard+0xee>
    1b3c:	e3 dc       	rcall	.-1594   	; 0x1504 <ledWriteAll>
    1b3e:	09 c0       	rjmp	.+18     	; 0x1b52 <initBoard+0x10c>
    1b40:	81 e0       	ldi	r24, 0x01	; 1
    1b42:	90 e0       	ldi	r25, 0x00	; 0
    1b44:	0d 2e       	mov	r0, r29
    1b46:	02 c0       	rjmp	.+4      	; 0x1b4c <initBoard+0x106>
    1b48:	88 0f       	add	r24, r24
    1b4a:	99 1f       	adc	r25, r25
    1b4c:	0a 94       	dec	r0
    1b4e:	e2 f7       	brpl	.-8      	; 0x1b48 <initBoard+0x102>
    1b50:	d9 dc       	rcall	.-1614   	; 0x1504 <ledWriteAll>
    1b52:	df 5f       	subi	r29, 0xFF	; 255
    1b54:	d1 31       	cpi	r29, 0x11	; 17
    1b56:	28 f0       	brcs	.+10     	; 0x1b62 <initBoard+0x11c>
    1b58:	81 e0       	ldi	r24, 0x01	; 1
    1b5a:	01 11       	cpse	r16, r1
    1b5c:	80 e0       	ldi	r24, 0x00	; 0
    1b5e:	08 2f       	mov	r16, r24
    1b60:	d0 e0       	ldi	r29, 0x00	; 0
    1b62:	ff 20       	and	r15, r15
    1b64:	11 f0       	breq	.+4      	; 0x1b6a <initBoard+0x124>
    1b66:	ce 5f       	subi	r28, 0xFE	; 254
    1b68:	01 c0       	rjmp	.+2      	; 0x1b6c <initBoard+0x126>
    1b6a:	c2 50       	subi	r28, 0x02	; 2
    1b6c:	8c 2f       	mov	r24, r28
    1b6e:	3f dd       	rcall	.-1410   	; 0x15ee <lcdLight>
    1b70:	ce 3f       	cpi	r28, 0xFE	; 254
    1b72:	09 f4       	brne	.+2      	; 0x1b76 <initBoard+0x130>
    1b74:	f1 2c       	mov	r15, r1
    1b76:	c8 37       	cpi	r28, 0x78	; 120
    1b78:	11 f4       	brne	.+4      	; 0x1b7e <initBoard+0x138>
    1b7a:	ff 24       	eor	r15, r15
    1b7c:	f3 94       	inc	r15
    1b7e:	11 11       	cpse	r17, r1
    1b80:	17 c0       	rjmp	.+46     	; 0x1bb0 <initBoard+0x16a>
    1b82:	c3 dc       	rcall	.-1658   	; 0x150a <buttonReadAllPL>
    1b84:	83 7c       	andi	r24, 0xC3	; 195
    1b86:	a1 f0       	breq	.+40     	; 0x1bb0 <initBoard+0x16a>
    1b88:	40 e0       	ldi	r20, 0x00	; 0
    1b8a:	50 e0       	ldi	r21, 0x00	; 0
    1b8c:	66 e2       	ldi	r22, 0x26	; 38
    1b8e:	72 e0       	ldi	r23, 0x02	; 2
    1b90:	8f ef       	ldi	r24, 0xFF	; 255
    1b92:	93 e0       	ldi	r25, 0x03	; 3
    1b94:	ed dc       	rcall	.-1574   	; 0x1570 <rgbWrite>
    1b96:	8f ee       	ldi	r24, 0xEF	; 239
    1b98:	92 e0       	ldi	r25, 0x02	; 2
    1b9a:	9f 93       	push	r25
    1b9c:	8f 93       	push	r24
    1b9e:	1f 92       	push	r1
    1ba0:	83 e0       	ldi	r24, 0x03	; 3
    1ba2:	8f 93       	push	r24
    1ba4:	b6 dd       	rcall	.-1172   	; 0x1712 <lcdWriteText>
    1ba6:	0f 90       	pop	r0
    1ba8:	0f 90       	pop	r0
    1baa:	0f 90       	pop	r0
    1bac:	0f 90       	pop	r0
    1bae:	11 e0       	ldi	r17, 0x01	; 1
    1bb0:	11 23       	and	r17, r17
    1bb2:	19 f0       	breq	.+6      	; 0x1bba <initBoard+0x174>
    1bb4:	aa dc       	rcall	.-1708   	; 0x150a <buttonReadAllPL>
    1bb6:	83 7c       	andi	r24, 0xC3	; 195
    1bb8:	39 f0       	breq	.+14     	; 0x1bc8 <initBoard+0x182>
    1bba:	8f ef       	ldi	r24, 0xFF	; 255
    1bbc:	9c e7       	ldi	r25, 0x7C	; 124
    1bbe:	01 97       	sbiw	r24, 0x01	; 1
    1bc0:	f1 f7       	brne	.-4      	; 0x1bbe <initBoard+0x178>
    1bc2:	00 c0       	rjmp	.+0      	; 0x1bc4 <initBoard+0x17e>
    1bc4:	00 00       	nop
    1bc6:	b0 cf       	rjmp	.-160    	; 0x1b28 <initBoard+0xe2>
    1bc8:	06 df       	rcall	.-500    	; 0x19d6 <lcdClear>
    1bca:	80 e0       	ldi	r24, 0x00	; 0
    1bcc:	10 dd       	rcall	.-1504   	; 0x15ee <lcdLight>
    1bce:	80 e0       	ldi	r24, 0x00	; 0
    1bd0:	90 e0       	ldi	r25, 0x00	; 0
    1bd2:	98 dc       	rcall	.-1744   	; 0x1504 <ledWriteAll>
    1bd4:	40 e0       	ldi	r20, 0x00	; 0
    1bd6:	50 e0       	ldi	r21, 0x00	; 0
    1bd8:	60 e0       	ldi	r22, 0x00	; 0
    1bda:	70 e0       	ldi	r23, 0x00	; 0
    1bdc:	80 e0       	ldi	r24, 0x00	; 0
    1bde:	90 e0       	ldi	r25, 0x00	; 0
    1be0:	c7 dc       	rcall	.-1650   	; 0x1570 <rgbWrite>
    1be2:	10 92 09 03 	sts	0x0309, r1	; 0x800309 <systemTimeMs>
    1be6:	10 92 0a 03 	sts	0x030A, r1	; 0x80030a <systemTimeMs+0x1>
    1bea:	10 92 0b 03 	sts	0x030B, r1	; 0x80030b <systemTimeMs+0x2>
    1bee:	10 92 0c 03 	sts	0x030C, r1	; 0x80030c <systemTimeMs+0x3>
    1bf2:	10 92 0d 03 	sts	0x030D, r1	; 0x80030d <systemTimeMs+0x4>
    1bf6:	10 92 0e 03 	sts	0x030E, r1	; 0x80030e <systemTimeMs+0x5>
    1bfa:	10 92 0f 03 	sts	0x030F, r1	; 0x80030f <systemTimeMs+0x6>
    1bfe:	10 92 10 03 	sts	0x0310, r1	; 0x800310 <systemTimeMs+0x7>
    1c02:	df 91       	pop	r29
    1c04:	cf 91       	pop	r28
    1c06:	1f 91       	pop	r17
    1c08:	0f 91       	pop	r16
    1c0a:	ff 90       	pop	r15
    1c0c:	08 95       	ret

00001c0e <matrixWriteNextLine>:




void matrixWriteNextLine(void)
{
    1c0e:	cf 93       	push	r28
    1c10:	df 93       	push	r29
    1c12:	cd b7       	in	r28, 0x3d	; 61
    1c14:	de b7       	in	r29, 0x3e	; 62
    1c16:	28 97       	sbiw	r28, 0x08	; 8
    1c18:	0f b6       	in	r0, 0x3f	; 63
    1c1a:	f8 94       	cli
    1c1c:	de bf       	out	0x3e, r29	; 62
    1c1e:	0f be       	out	0x3f, r0	; 63
    1c20:	cd bf       	out	0x3d, r28	; 61
    const  uint8_t Bit_Muster_Tab[8] = {1,2,4,8,16,32,64,128};
    1c22:	88 e0       	ldi	r24, 0x08	; 8
    1c24:	ea e2       	ldi	r30, 0x2A	; 42
    1c26:	f2 e0       	ldi	r31, 0x02	; 2
    1c28:	de 01       	movw	r26, r28
    1c2a:	11 96       	adiw	r26, 0x01	; 1
    1c2c:	01 90       	ld	r0, Z+
    1c2e:	0d 92       	st	X+, r0
    1c30:	8a 95       	dec	r24
    1c32:	e1 f7       	brne	.-8      	; 0x1c2c <matrixWriteNextLine+0x1e>
    static uint16_t Zeilen_Nr, Bit_Muster;
    uint8_t i;
    
    STROBE_0;                             // Daten des Scheiberegisters nicht ins Latch schreiben
    1c34:	e5 e0       	ldi	r30, 0x05	; 5
    1c36:	f1 e0       	ldi	r31, 0x01	; 1
    1c38:	80 81       	ld	r24, Z
    1c3a:	8f 7b       	andi	r24, 0xBF	; 191
    1c3c:	80 83       	st	Z, r24

    Bit_Muster = Bit_Muster_Tab[Zeilen_Nr]; // Bitmuster aus Tabelle holen, um mit Daten in matrix[] zu vergleichen.
    1c3e:	e0 91 06 03 	lds	r30, 0x0306	; 0x800306 <Zeilen_Nr.2751>
    1c42:	f0 91 07 03 	lds	r31, 0x0307	; 0x800307 <Zeilen_Nr.2751+0x1>
    1c46:	81 e0       	ldi	r24, 0x01	; 1
    1c48:	90 e0       	ldi	r25, 0x00	; 0
    1c4a:	8c 0f       	add	r24, r28
    1c4c:	9d 1f       	adc	r25, r29
    1c4e:	e8 0f       	add	r30, r24
    1c50:	f9 1f       	adc	r31, r25
    1c52:	80 81       	ld	r24, Z
    1c54:	90 e0       	ldi	r25, 0x00	; 0
    1c56:	90 93 05 03 	sts	0x0305, r25	; 0x800305 <__data_end+0x1>
    1c5a:	80 93 04 03 	sts	0x0304, r24	; 0x800304 <__data_end>
    
    // Alle Bits seriell ins Schieberegister hineinschreiben
    for(i=0; i<Anzahl_Spalten; i++)         // Alle Spalten durchgehen und ĂĽberpĂĽfen, ob Bit gesetzt ist
    1c5e:	80 e0       	ldi	r24, 0x00	; 0
    1c60:	26 c0       	rjmp	.+76     	; 0x1cae <matrixWriteNextLine+0xa0>
    {                                       // Vergleicht Bit-Muster der aktuellen Zeile mit Daten in matrix[]
        if((matrix[Anzahl_Spalten-1- i] & Bit_Muster) != 0)     // Ist in matrix[] das entsprechende Bit gesetzt?
    1c62:	e7 e3       	ldi	r30, 0x37	; 55
    1c64:	f0 e0       	ldi	r31, 0x00	; 0
    1c66:	e8 1b       	sub	r30, r24
    1c68:	f1 09       	sbc	r31, r1
    1c6a:	ee 0f       	add	r30, r30
    1c6c:	ff 1f       	adc	r31, r31
    1c6e:	ee 5e       	subi	r30, 0xEE	; 238
    1c70:	fc 4f       	sbci	r31, 0xFC	; 252
    1c72:	40 81       	ld	r20, Z
    1c74:	51 81       	ldd	r21, Z+1	; 0x01
    1c76:	20 91 04 03 	lds	r18, 0x0304	; 0x800304 <__data_end>
    1c7a:	30 91 05 03 	lds	r19, 0x0305	; 0x800305 <__data_end+0x1>
    1c7e:	24 23       	and	r18, r20
    1c80:	35 23       	and	r19, r21
    1c82:	23 2b       	or	r18, r19
    1c84:	31 f0       	breq	.+12     	; 0x1c92 <matrixWriteNextLine+0x84>
        { DATA_Modul_1_ON;                    //   JA:   ==> Datenbit "1" ins Schieberegister schreiben
    1c86:	e5 e0       	ldi	r30, 0x05	; 5
    1c88:	f1 e0       	ldi	r31, 0x01	; 1
    1c8a:	90 81       	ld	r25, Z
    1c8c:	90 62       	ori	r25, 0x20	; 32
    1c8e:	90 83       	st	Z, r25
    1c90:	05 c0       	rjmp	.+10     	; 0x1c9c <matrixWriteNextLine+0x8e>
        }
        else
        { DATA_Modul_1_OFF;                   //   NEIN: ==> Datenbit "0" ins Schieberegister schreiben
    1c92:	e5 e0       	ldi	r30, 0x05	; 5
    1c94:	f1 e0       	ldi	r31, 0x01	; 1
    1c96:	90 81       	ld	r25, Z
    1c98:	9f 7d       	andi	r25, 0xDF	; 223
    1c9a:	90 83       	st	Z, r25
        }
        CLOCK_1;
    1c9c:	e5 e0       	ldi	r30, 0x05	; 5
    1c9e:	f1 e0       	ldi	r31, 0x01	; 1
    1ca0:	90 81       	ld	r25, Z
    1ca2:	90 61       	ori	r25, 0x10	; 16
    1ca4:	90 83       	st	Z, r25
        CLOCK_0;                            // Datenbit wird bei der negativen Flanke des Clock-Signals ĂĽbernommen
    1ca6:	90 81       	ld	r25, Z
    1ca8:	9f 7e       	andi	r25, 0xEF	; 239
    1caa:	90 83       	st	Z, r25
    STROBE_0;                             // Daten des Scheiberegisters nicht ins Latch schreiben

    Bit_Muster = Bit_Muster_Tab[Zeilen_Nr]; // Bitmuster aus Tabelle holen, um mit Daten in matrix[] zu vergleichen.
    
    // Alle Bits seriell ins Schieberegister hineinschreiben
    for(i=0; i<Anzahl_Spalten; i++)         // Alle Spalten durchgehen und ĂĽberpĂĽfen, ob Bit gesetzt ist
    1cac:	8f 5f       	subi	r24, 0xFF	; 255
    1cae:	88 33       	cpi	r24, 0x38	; 56
    1cb0:	c0 f2       	brcs	.-80     	; 0x1c62 <matrixWriteNextLine+0x54>
        }
        CLOCK_1;
        CLOCK_0;                            // Datenbit wird bei der negativen Flanke des Clock-Signals ĂĽbernommen
    }
    
    ENABLE_0;                                // +5V aller Zeilen abschalten
    1cb2:	e5 e0       	ldi	r30, 0x05	; 5
    1cb4:	f1 e0       	ldi	r31, 0x01	; 1
    1cb6:	80 81       	ld	r24, Z
    1cb8:	87 7f       	andi	r24, 0xF7	; 247
    1cba:	80 83       	st	Z, r24
    PORTJ &= ~0x07;
    1cbc:	80 81       	ld	r24, Z
    1cbe:	88 7f       	andi	r24, 0xF8	; 248
    1cc0:	80 83       	st	Z, r24
    PORTJ |= Zeilen_Nr;                     // gewĂĽnschte Zeile einstellen
    1cc2:	90 81       	ld	r25, Z
    1cc4:	80 91 06 03 	lds	r24, 0x0306	; 0x800306 <Zeilen_Nr.2751>
    1cc8:	89 2b       	or	r24, r25
    1cca:	80 83       	st	Z, r24
    STROBE_1;                             // Daten ins Latch schreiben
    1ccc:	80 81       	ld	r24, Z
    1cce:	80 64       	ori	r24, 0x40	; 64
    1cd0:	80 83       	st	Z, r24
    ENABLE_1;                             // +5V Speisung der eingestellten Zeile einschalten
    1cd2:	80 81       	ld	r24, Z
    1cd4:	88 60       	ori	r24, 0x08	; 8
    1cd6:	80 83       	st	Z, r24

    // Die Zeilen werden nacheinander eingeschaltet --> zyklisch 0,1,2,3,4,5,6,7, 0,1,2,3, ...
    if (Zeilen_Nr < 7)
    1cd8:	80 91 06 03 	lds	r24, 0x0306	; 0x800306 <Zeilen_Nr.2751>
    1cdc:	90 91 07 03 	lds	r25, 0x0307	; 0x800307 <Zeilen_Nr.2751+0x1>
    1ce0:	87 30       	cpi	r24, 0x07	; 7
    1ce2:	91 05       	cpc	r25, r1
    1ce4:	30 f4       	brcc	.+12     	; 0x1cf2 <matrixWriteNextLine+0xe4>
    {
        Zeilen_Nr++;
    1ce6:	01 96       	adiw	r24, 0x01	; 1
    1ce8:	90 93 07 03 	sts	0x0307, r25	; 0x800307 <Zeilen_Nr.2751+0x1>
    1cec:	80 93 06 03 	sts	0x0306, r24	; 0x800306 <Zeilen_Nr.2751>
    1cf0:	07 c0       	rjmp	.+14     	; 0x1d00 <matrixWriteNextLine+0xf2>
    }
    else
    {
        Zeilen_Nr = 0;
    1cf2:	10 92 07 03 	sts	0x0307, r1	; 0x800307 <Zeilen_Nr.2751+0x1>
    1cf6:	10 92 06 03 	sts	0x0306, r1	; 0x800306 <Zeilen_Nr.2751>
        writeTextFinished = 1;
    1cfa:	81 e0       	ldi	r24, 0x01	; 1
    1cfc:	80 93 08 03 	sts	0x0308, r24	; 0x800308 <writeTextFinished>
    }
    
    1d00:	28 96       	adiw	r28, 0x08	; 8
    1d02:	0f b6       	in	r0, 0x3f	; 63
    1d04:	f8 94       	cli
    1d06:	de bf       	out	0x3e, r29	; 62
    1d08:	0f be       	out	0x3f, r0	; 63
    1d0a:	cd bf       	out	0x3d, r28	; 61
    1d0c:	df 91       	pop	r29
    1d0e:	cf 91       	pop	r28
    1d10:	08 95       	ret

00001d12 <__vector_23>:
//--------------------------------------------------------------------------------------------
// Timer 0 Overflow Interrupt ->  Wird alle 1ms aufgerufen
//--------------------------------------------------------------------------------------------

ISR(TIMER0_OVF_vect)
{
    1d12:	1f 92       	push	r1
    1d14:	0f 92       	push	r0
    1d16:	0f b6       	in	r0, 0x3f	; 63
    1d18:	0f 92       	push	r0
    1d1a:	11 24       	eor	r1, r1
    1d1c:	0b b6       	in	r0, 0x3b	; 59
    1d1e:	0f 92       	push	r0
    1d20:	2f 93       	push	r18
    1d22:	3f 93       	push	r19
    1d24:	4f 93       	push	r20
    1d26:	5f 93       	push	r21
    1d28:	6f 93       	push	r22
    1d2a:	7f 93       	push	r23
    1d2c:	8f 93       	push	r24
    1d2e:	9f 93       	push	r25
    1d30:	af 93       	push	r26
    1d32:	bf 93       	push	r27
    1d34:	ef 93       	push	r30
    1d36:	ff 93       	push	r31
    systemTimeMs += 1;
    1d38:	20 91 09 03 	lds	r18, 0x0309	; 0x800309 <systemTimeMs>
    1d3c:	30 91 0a 03 	lds	r19, 0x030A	; 0x80030a <systemTimeMs+0x1>
    1d40:	40 91 0b 03 	lds	r20, 0x030B	; 0x80030b <systemTimeMs+0x2>
    1d44:	50 91 0c 03 	lds	r21, 0x030C	; 0x80030c <systemTimeMs+0x3>
    1d48:	60 91 0d 03 	lds	r22, 0x030D	; 0x80030d <systemTimeMs+0x4>
    1d4c:	70 91 0e 03 	lds	r23, 0x030E	; 0x80030e <systemTimeMs+0x5>
    1d50:	80 91 0f 03 	lds	r24, 0x030F	; 0x80030f <systemTimeMs+0x6>
    1d54:	90 91 10 03 	lds	r25, 0x0310	; 0x800310 <systemTimeMs+0x7>
    1d58:	a1 e0       	ldi	r26, 0x01	; 1
    1d5a:	8d d0       	rcall	.+282    	; 0x1e76 <__adddi3_s8>
    1d5c:	20 93 09 03 	sts	0x0309, r18	; 0x800309 <systemTimeMs>
    1d60:	30 93 0a 03 	sts	0x030A, r19	; 0x80030a <systemTimeMs+0x1>
    1d64:	40 93 0b 03 	sts	0x030B, r20	; 0x80030b <systemTimeMs+0x2>
    1d68:	50 93 0c 03 	sts	0x030C, r21	; 0x80030c <systemTimeMs+0x3>
    1d6c:	60 93 0d 03 	sts	0x030D, r22	; 0x80030d <systemTimeMs+0x4>
    1d70:	70 93 0e 03 	sts	0x030E, r23	; 0x80030e <systemTimeMs+0x5>
    1d74:	80 93 0f 03 	sts	0x030F, r24	; 0x80030f <systemTimeMs+0x6>
    1d78:	90 93 10 03 	sts	0x0310, r25	; 0x800310 <systemTimeMs+0x7>

    if(matrixRunning)matrixWriteNextLine();
    1d7c:	80 91 11 03 	lds	r24, 0x0311	; 0x800311 <matrixRunning>
    1d80:	81 11       	cpse	r24, r1
    1d82:	45 df       	rcall	.-374    	; 0x1c0e <matrixWriteNextLine>
}
    1d84:	ff 91       	pop	r31
    1d86:	ef 91       	pop	r30
    1d88:	bf 91       	pop	r27
    1d8a:	af 91       	pop	r26
    1d8c:	9f 91       	pop	r25
    1d8e:	8f 91       	pop	r24
    1d90:	7f 91       	pop	r23
    1d92:	6f 91       	pop	r22
    1d94:	5f 91       	pop	r21
    1d96:	4f 91       	pop	r20
    1d98:	3f 91       	pop	r19
    1d9a:	2f 91       	pop	r18
    1d9c:	0f 90       	pop	r0
    1d9e:	0b be       	out	0x3b, r0	; 59
    1da0:	0f 90       	pop	r0
    1da2:	0f be       	out	0x3f, r0	; 63
    1da4:	0f 90       	pop	r0
    1da6:	1f 90       	pop	r1
    1da8:	18 95       	reti

00001daa <__tablejump2__>:
    1daa:	ee 0f       	add	r30, r30
    1dac:	ff 1f       	adc	r31, r31
    1dae:	88 1f       	adc	r24, r24
    1db0:	8b bf       	out	0x3b, r24	; 59
    1db2:	07 90       	elpm	r0, Z+
    1db4:	f6 91       	elpm	r31, Z
    1db6:	e0 2d       	mov	r30, r0
    1db8:	19 94       	eijmp

00001dba <__umoddi3>:
    1dba:	68 94       	set
    1dbc:	01 c0       	rjmp	.+2      	; 0x1dc0 <__udivdi3_umoddi3>

00001dbe <__udivdi3>:
    1dbe:	e8 94       	clt

00001dc0 <__udivdi3_umoddi3>:
    1dc0:	8f 92       	push	r8
    1dc2:	9f 92       	push	r9
    1dc4:	cf 93       	push	r28
    1dc6:	df 93       	push	r29
    1dc8:	05 d0       	rcall	.+10     	; 0x1dd4 <__udivmod64>
    1dca:	df 91       	pop	r29
    1dcc:	cf 91       	pop	r28
    1dce:	9f 90       	pop	r9
    1dd0:	8f 90       	pop	r8
    1dd2:	08 95       	ret

00001dd4 <__udivmod64>:
    1dd4:	88 24       	eor	r8, r8
    1dd6:	99 24       	eor	r9, r9
    1dd8:	f4 01       	movw	r30, r8
    1dda:	e4 01       	movw	r28, r8
    1ddc:	b0 e4       	ldi	r27, 0x40	; 64
    1dde:	9f 93       	push	r25
    1de0:	aa 27       	eor	r26, r26
    1de2:	9a 15       	cp	r25, r10
    1de4:	8b 04       	cpc	r8, r11
    1de6:	9c 04       	cpc	r9, r12
    1de8:	ed 05       	cpc	r30, r13
    1dea:	fe 05       	cpc	r31, r14
    1dec:	cf 05       	cpc	r28, r15
    1dee:	d0 07       	cpc	r29, r16
    1df0:	a1 07       	cpc	r26, r17
    1df2:	98 f4       	brcc	.+38     	; 0x1e1a <__udivmod64+0x46>
    1df4:	ad 2f       	mov	r26, r29
    1df6:	dc 2f       	mov	r29, r28
    1df8:	cf 2f       	mov	r28, r31
    1dfa:	fe 2f       	mov	r31, r30
    1dfc:	e9 2d       	mov	r30, r9
    1dfe:	98 2c       	mov	r9, r8
    1e00:	89 2e       	mov	r8, r25
    1e02:	98 2f       	mov	r25, r24
    1e04:	87 2f       	mov	r24, r23
    1e06:	76 2f       	mov	r23, r22
    1e08:	65 2f       	mov	r22, r21
    1e0a:	54 2f       	mov	r21, r20
    1e0c:	43 2f       	mov	r20, r19
    1e0e:	32 2f       	mov	r19, r18
    1e10:	22 27       	eor	r18, r18
    1e12:	b8 50       	subi	r27, 0x08	; 8
    1e14:	31 f7       	brne	.-52     	; 0x1de2 <__udivmod64+0xe>
    1e16:	bf 91       	pop	r27
    1e18:	27 c0       	rjmp	.+78     	; 0x1e68 <__udivmod64+0x94>
    1e1a:	1b 2e       	mov	r1, r27
    1e1c:	bf 91       	pop	r27
    1e1e:	bb 27       	eor	r27, r27
    1e20:	22 0f       	add	r18, r18
    1e22:	33 1f       	adc	r19, r19
    1e24:	44 1f       	adc	r20, r20
    1e26:	55 1f       	adc	r21, r21
    1e28:	66 1f       	adc	r22, r22
    1e2a:	77 1f       	adc	r23, r23
    1e2c:	88 1f       	adc	r24, r24
    1e2e:	99 1f       	adc	r25, r25
    1e30:	88 1c       	adc	r8, r8
    1e32:	99 1c       	adc	r9, r9
    1e34:	ee 1f       	adc	r30, r30
    1e36:	ff 1f       	adc	r31, r31
    1e38:	cc 1f       	adc	r28, r28
    1e3a:	dd 1f       	adc	r29, r29
    1e3c:	aa 1f       	adc	r26, r26
    1e3e:	bb 1f       	adc	r27, r27
    1e40:	8a 14       	cp	r8, r10
    1e42:	9b 04       	cpc	r9, r11
    1e44:	ec 05       	cpc	r30, r12
    1e46:	fd 05       	cpc	r31, r13
    1e48:	ce 05       	cpc	r28, r14
    1e4a:	df 05       	cpc	r29, r15
    1e4c:	a0 07       	cpc	r26, r16
    1e4e:	b1 07       	cpc	r27, r17
    1e50:	48 f0       	brcs	.+18     	; 0x1e64 <__udivmod64+0x90>
    1e52:	8a 18       	sub	r8, r10
    1e54:	9b 08       	sbc	r9, r11
    1e56:	ec 09       	sbc	r30, r12
    1e58:	fd 09       	sbc	r31, r13
    1e5a:	ce 09       	sbc	r28, r14
    1e5c:	df 09       	sbc	r29, r15
    1e5e:	a0 0b       	sbc	r26, r16
    1e60:	b1 0b       	sbc	r27, r17
    1e62:	21 60       	ori	r18, 0x01	; 1
    1e64:	1a 94       	dec	r1
    1e66:	e1 f6       	brne	.-72     	; 0x1e20 <__udivmod64+0x4c>
    1e68:	2e f4       	brtc	.+10     	; 0x1e74 <__udivmod64+0xa0>
    1e6a:	94 01       	movw	r18, r8
    1e6c:	af 01       	movw	r20, r30
    1e6e:	be 01       	movw	r22, r28
    1e70:	cd 01       	movw	r24, r26
    1e72:	00 0c       	add	r0, r0
    1e74:	08 95       	ret

00001e76 <__adddi3_s8>:
    1e76:	00 24       	eor	r0, r0
    1e78:	a7 fd       	sbrc	r26, 7
    1e7a:	00 94       	com	r0
    1e7c:	2a 0f       	add	r18, r26
    1e7e:	30 1d       	adc	r19, r0
    1e80:	40 1d       	adc	r20, r0
    1e82:	50 1d       	adc	r21, r0
    1e84:	60 1d       	adc	r22, r0
    1e86:	70 1d       	adc	r23, r0
    1e88:	80 1d       	adc	r24, r0
    1e8a:	90 1d       	adc	r25, r0
    1e8c:	08 95       	ret

00001e8e <__subdi3>:
    1e8e:	2a 19       	sub	r18, r10
    1e90:	3b 09       	sbc	r19, r11
    1e92:	4c 09       	sbc	r20, r12
    1e94:	5d 09       	sbc	r21, r13
    1e96:	6e 09       	sbc	r22, r14
    1e98:	7f 09       	sbc	r23, r15
    1e9a:	80 0b       	sbc	r24, r16
    1e9c:	91 0b       	sbc	r25, r17
    1e9e:	08 95       	ret

00001ea0 <__cmpdi2_s8>:
    1ea0:	00 24       	eor	r0, r0
    1ea2:	a7 fd       	sbrc	r26, 7
    1ea4:	00 94       	com	r0
    1ea6:	2a 17       	cp	r18, r26
    1ea8:	30 05       	cpc	r19, r0
    1eaa:	40 05       	cpc	r20, r0
    1eac:	50 05       	cpc	r21, r0
    1eae:	60 05       	cpc	r22, r0
    1eb0:	70 05       	cpc	r23, r0
    1eb2:	80 05       	cpc	r24, r0
    1eb4:	90 05       	cpc	r25, r0
    1eb6:	08 95       	ret

00001eb8 <vsnprintf>:
    1eb8:	0f 93       	push	r16
    1eba:	1f 93       	push	r17
    1ebc:	cf 93       	push	r28
    1ebe:	df 93       	push	r29
    1ec0:	cd b7       	in	r28, 0x3d	; 61
    1ec2:	de b7       	in	r29, 0x3e	; 62
    1ec4:	2e 97       	sbiw	r28, 0x0e	; 14
    1ec6:	0f b6       	in	r0, 0x3f	; 63
    1ec8:	f8 94       	cli
    1eca:	de bf       	out	0x3e, r29	; 62
    1ecc:	0f be       	out	0x3f, r0	; 63
    1ece:	cd bf       	out	0x3d, r28	; 61
    1ed0:	8c 01       	movw	r16, r24
    1ed2:	fa 01       	movw	r30, r20
    1ed4:	86 e0       	ldi	r24, 0x06	; 6
    1ed6:	8c 83       	std	Y+4, r24	; 0x04
    1ed8:	1a 83       	std	Y+2, r17	; 0x02
    1eda:	09 83       	std	Y+1, r16	; 0x01
    1edc:	77 ff       	sbrs	r23, 7
    1ede:	02 c0       	rjmp	.+4      	; 0x1ee4 <vsnprintf+0x2c>
    1ee0:	60 e0       	ldi	r22, 0x00	; 0
    1ee2:	70 e8       	ldi	r23, 0x80	; 128
    1ee4:	cb 01       	movw	r24, r22
    1ee6:	01 97       	sbiw	r24, 0x01	; 1
    1ee8:	9e 83       	std	Y+6, r25	; 0x06
    1eea:	8d 83       	std	Y+5, r24	; 0x05
    1eec:	a9 01       	movw	r20, r18
    1eee:	bf 01       	movw	r22, r30
    1ef0:	ce 01       	movw	r24, r28
    1ef2:	01 96       	adiw	r24, 0x01	; 1
    1ef4:	19 d0       	rcall	.+50     	; 0x1f28 <vfprintf>
    1ef6:	4d 81       	ldd	r20, Y+5	; 0x05
    1ef8:	5e 81       	ldd	r21, Y+6	; 0x06
    1efa:	57 fd       	sbrc	r21, 7
    1efc:	0a c0       	rjmp	.+20     	; 0x1f12 <vsnprintf+0x5a>
    1efe:	2f 81       	ldd	r18, Y+7	; 0x07
    1f00:	38 85       	ldd	r19, Y+8	; 0x08
    1f02:	42 17       	cp	r20, r18
    1f04:	53 07       	cpc	r21, r19
    1f06:	0c f4       	brge	.+2      	; 0x1f0a <vsnprintf+0x52>
    1f08:	9a 01       	movw	r18, r20
    1f0a:	f8 01       	movw	r30, r16
    1f0c:	e2 0f       	add	r30, r18
    1f0e:	f3 1f       	adc	r31, r19
    1f10:	10 82       	st	Z, r1
    1f12:	2e 96       	adiw	r28, 0x0e	; 14
    1f14:	0f b6       	in	r0, 0x3f	; 63
    1f16:	f8 94       	cli
    1f18:	de bf       	out	0x3e, r29	; 62
    1f1a:	0f be       	out	0x3f, r0	; 63
    1f1c:	cd bf       	out	0x3d, r28	; 61
    1f1e:	df 91       	pop	r29
    1f20:	cf 91       	pop	r28
    1f22:	1f 91       	pop	r17
    1f24:	0f 91       	pop	r16
    1f26:	08 95       	ret

00001f28 <vfprintf>:
    1f28:	2f 92       	push	r2
    1f2a:	3f 92       	push	r3
    1f2c:	4f 92       	push	r4
    1f2e:	5f 92       	push	r5
    1f30:	6f 92       	push	r6
    1f32:	7f 92       	push	r7
    1f34:	8f 92       	push	r8
    1f36:	9f 92       	push	r9
    1f38:	af 92       	push	r10
    1f3a:	bf 92       	push	r11
    1f3c:	cf 92       	push	r12
    1f3e:	df 92       	push	r13
    1f40:	ef 92       	push	r14
    1f42:	ff 92       	push	r15
    1f44:	0f 93       	push	r16
    1f46:	1f 93       	push	r17
    1f48:	cf 93       	push	r28
    1f4a:	df 93       	push	r29
    1f4c:	cd b7       	in	r28, 0x3d	; 61
    1f4e:	de b7       	in	r29, 0x3e	; 62
    1f50:	2b 97       	sbiw	r28, 0x0b	; 11
    1f52:	0f b6       	in	r0, 0x3f	; 63
    1f54:	f8 94       	cli
    1f56:	de bf       	out	0x3e, r29	; 62
    1f58:	0f be       	out	0x3f, r0	; 63
    1f5a:	cd bf       	out	0x3d, r28	; 61
    1f5c:	6c 01       	movw	r12, r24
    1f5e:	7b 01       	movw	r14, r22
    1f60:	8a 01       	movw	r16, r20
    1f62:	fc 01       	movw	r30, r24
    1f64:	17 82       	std	Z+7, r1	; 0x07
    1f66:	16 82       	std	Z+6, r1	; 0x06
    1f68:	83 81       	ldd	r24, Z+3	; 0x03
    1f6a:	81 ff       	sbrs	r24, 1
    1f6c:	bf c1       	rjmp	.+894    	; 0x22ec <__stack+0xed>
    1f6e:	ce 01       	movw	r24, r28
    1f70:	01 96       	adiw	r24, 0x01	; 1
    1f72:	3c 01       	movw	r6, r24
    1f74:	f6 01       	movw	r30, r12
    1f76:	93 81       	ldd	r25, Z+3	; 0x03
    1f78:	f7 01       	movw	r30, r14
    1f7a:	93 fd       	sbrc	r25, 3
    1f7c:	85 91       	lpm	r24, Z+
    1f7e:	93 ff       	sbrs	r25, 3
    1f80:	81 91       	ld	r24, Z+
    1f82:	7f 01       	movw	r14, r30
    1f84:	88 23       	and	r24, r24
    1f86:	09 f4       	brne	.+2      	; 0x1f8a <vfprintf+0x62>
    1f88:	ad c1       	rjmp	.+858    	; 0x22e4 <__stack+0xe5>
    1f8a:	85 32       	cpi	r24, 0x25	; 37
    1f8c:	39 f4       	brne	.+14     	; 0x1f9c <vfprintf+0x74>
    1f8e:	93 fd       	sbrc	r25, 3
    1f90:	85 91       	lpm	r24, Z+
    1f92:	93 ff       	sbrs	r25, 3
    1f94:	81 91       	ld	r24, Z+
    1f96:	7f 01       	movw	r14, r30
    1f98:	85 32       	cpi	r24, 0x25	; 37
    1f9a:	21 f4       	brne	.+8      	; 0x1fa4 <vfprintf+0x7c>
    1f9c:	b6 01       	movw	r22, r12
    1f9e:	90 e0       	ldi	r25, 0x00	; 0
    1fa0:	d6 d1       	rcall	.+940    	; 0x234e <fputc>
    1fa2:	e8 cf       	rjmp	.-48     	; 0x1f74 <vfprintf+0x4c>
    1fa4:	91 2c       	mov	r9, r1
    1fa6:	21 2c       	mov	r2, r1
    1fa8:	31 2c       	mov	r3, r1
    1faa:	ff e1       	ldi	r31, 0x1F	; 31
    1fac:	f3 15       	cp	r31, r3
    1fae:	d8 f0       	brcs	.+54     	; 0x1fe6 <vfprintf+0xbe>
    1fb0:	8b 32       	cpi	r24, 0x2B	; 43
    1fb2:	79 f0       	breq	.+30     	; 0x1fd2 <vfprintf+0xaa>
    1fb4:	38 f4       	brcc	.+14     	; 0x1fc4 <vfprintf+0x9c>
    1fb6:	80 32       	cpi	r24, 0x20	; 32
    1fb8:	79 f0       	breq	.+30     	; 0x1fd8 <vfprintf+0xb0>
    1fba:	83 32       	cpi	r24, 0x23	; 35
    1fbc:	a1 f4       	brne	.+40     	; 0x1fe6 <vfprintf+0xbe>
    1fbe:	23 2d       	mov	r18, r3
    1fc0:	20 61       	ori	r18, 0x10	; 16
    1fc2:	1d c0       	rjmp	.+58     	; 0x1ffe <vfprintf+0xd6>
    1fc4:	8d 32       	cpi	r24, 0x2D	; 45
    1fc6:	61 f0       	breq	.+24     	; 0x1fe0 <vfprintf+0xb8>
    1fc8:	80 33       	cpi	r24, 0x30	; 48
    1fca:	69 f4       	brne	.+26     	; 0x1fe6 <vfprintf+0xbe>
    1fcc:	23 2d       	mov	r18, r3
    1fce:	21 60       	ori	r18, 0x01	; 1
    1fd0:	16 c0       	rjmp	.+44     	; 0x1ffe <vfprintf+0xd6>
    1fd2:	83 2d       	mov	r24, r3
    1fd4:	82 60       	ori	r24, 0x02	; 2
    1fd6:	38 2e       	mov	r3, r24
    1fd8:	e3 2d       	mov	r30, r3
    1fda:	e4 60       	ori	r30, 0x04	; 4
    1fdc:	3e 2e       	mov	r3, r30
    1fde:	2a c0       	rjmp	.+84     	; 0x2034 <__DATA_REGION_LENGTH__+0x34>
    1fe0:	f3 2d       	mov	r31, r3
    1fe2:	f8 60       	ori	r31, 0x08	; 8
    1fe4:	1d c0       	rjmp	.+58     	; 0x2020 <__DATA_REGION_LENGTH__+0x20>
    1fe6:	37 fc       	sbrc	r3, 7
    1fe8:	2d c0       	rjmp	.+90     	; 0x2044 <__DATA_REGION_LENGTH__+0x44>
    1fea:	20 ed       	ldi	r18, 0xD0	; 208
    1fec:	28 0f       	add	r18, r24
    1fee:	2a 30       	cpi	r18, 0x0A	; 10
    1ff0:	40 f0       	brcs	.+16     	; 0x2002 <__DATA_REGION_LENGTH__+0x2>
    1ff2:	8e 32       	cpi	r24, 0x2E	; 46
    1ff4:	b9 f4       	brne	.+46     	; 0x2024 <__DATA_REGION_LENGTH__+0x24>
    1ff6:	36 fc       	sbrc	r3, 6
    1ff8:	75 c1       	rjmp	.+746    	; 0x22e4 <__stack+0xe5>
    1ffa:	23 2d       	mov	r18, r3
    1ffc:	20 64       	ori	r18, 0x40	; 64
    1ffe:	32 2e       	mov	r3, r18
    2000:	19 c0       	rjmp	.+50     	; 0x2034 <__DATA_REGION_LENGTH__+0x34>
    2002:	36 fe       	sbrs	r3, 6
    2004:	06 c0       	rjmp	.+12     	; 0x2012 <__DATA_REGION_LENGTH__+0x12>
    2006:	8a e0       	ldi	r24, 0x0A	; 10
    2008:	98 9e       	mul	r9, r24
    200a:	20 0d       	add	r18, r0
    200c:	11 24       	eor	r1, r1
    200e:	92 2e       	mov	r9, r18
    2010:	11 c0       	rjmp	.+34     	; 0x2034 <__DATA_REGION_LENGTH__+0x34>
    2012:	ea e0       	ldi	r30, 0x0A	; 10
    2014:	2e 9e       	mul	r2, r30
    2016:	20 0d       	add	r18, r0
    2018:	11 24       	eor	r1, r1
    201a:	22 2e       	mov	r2, r18
    201c:	f3 2d       	mov	r31, r3
    201e:	f0 62       	ori	r31, 0x20	; 32
    2020:	3f 2e       	mov	r3, r31
    2022:	08 c0       	rjmp	.+16     	; 0x2034 <__DATA_REGION_LENGTH__+0x34>
    2024:	8c 36       	cpi	r24, 0x6C	; 108
    2026:	21 f4       	brne	.+8      	; 0x2030 <__DATA_REGION_LENGTH__+0x30>
    2028:	83 2d       	mov	r24, r3
    202a:	80 68       	ori	r24, 0x80	; 128
    202c:	38 2e       	mov	r3, r24
    202e:	02 c0       	rjmp	.+4      	; 0x2034 <__DATA_REGION_LENGTH__+0x34>
    2030:	88 36       	cpi	r24, 0x68	; 104
    2032:	41 f4       	brne	.+16     	; 0x2044 <__DATA_REGION_LENGTH__+0x44>
    2034:	f7 01       	movw	r30, r14
    2036:	93 fd       	sbrc	r25, 3
    2038:	85 91       	lpm	r24, Z+
    203a:	93 ff       	sbrs	r25, 3
    203c:	81 91       	ld	r24, Z+
    203e:	7f 01       	movw	r14, r30
    2040:	81 11       	cpse	r24, r1
    2042:	b3 cf       	rjmp	.-154    	; 0x1faa <vfprintf+0x82>
    2044:	98 2f       	mov	r25, r24
    2046:	9f 7d       	andi	r25, 0xDF	; 223
    2048:	95 54       	subi	r25, 0x45	; 69
    204a:	93 30       	cpi	r25, 0x03	; 3
    204c:	28 f4       	brcc	.+10     	; 0x2058 <__DATA_REGION_LENGTH__+0x58>
    204e:	0c 5f       	subi	r16, 0xFC	; 252
    2050:	1f 4f       	sbci	r17, 0xFF	; 255
    2052:	9f e3       	ldi	r25, 0x3F	; 63
    2054:	99 83       	std	Y+1, r25	; 0x01
    2056:	0d c0       	rjmp	.+26     	; 0x2072 <__DATA_REGION_LENGTH__+0x72>
    2058:	83 36       	cpi	r24, 0x63	; 99
    205a:	31 f0       	breq	.+12     	; 0x2068 <__DATA_REGION_LENGTH__+0x68>
    205c:	83 37       	cpi	r24, 0x73	; 115
    205e:	71 f0       	breq	.+28     	; 0x207c <__DATA_REGION_LENGTH__+0x7c>
    2060:	83 35       	cpi	r24, 0x53	; 83
    2062:	09 f0       	breq	.+2      	; 0x2066 <__DATA_REGION_LENGTH__+0x66>
    2064:	55 c0       	rjmp	.+170    	; 0x2110 <__DATA_REGION_LENGTH__+0x110>
    2066:	20 c0       	rjmp	.+64     	; 0x20a8 <__DATA_REGION_LENGTH__+0xa8>
    2068:	f8 01       	movw	r30, r16
    206a:	80 81       	ld	r24, Z
    206c:	89 83       	std	Y+1, r24	; 0x01
    206e:	0e 5f       	subi	r16, 0xFE	; 254
    2070:	1f 4f       	sbci	r17, 0xFF	; 255
    2072:	88 24       	eor	r8, r8
    2074:	83 94       	inc	r8
    2076:	91 2c       	mov	r9, r1
    2078:	53 01       	movw	r10, r6
    207a:	12 c0       	rjmp	.+36     	; 0x20a0 <__DATA_REGION_LENGTH__+0xa0>
    207c:	28 01       	movw	r4, r16
    207e:	f2 e0       	ldi	r31, 0x02	; 2
    2080:	4f 0e       	add	r4, r31
    2082:	51 1c       	adc	r5, r1
    2084:	f8 01       	movw	r30, r16
    2086:	a0 80       	ld	r10, Z
    2088:	b1 80       	ldd	r11, Z+1	; 0x01
    208a:	36 fe       	sbrs	r3, 6
    208c:	03 c0       	rjmp	.+6      	; 0x2094 <__DATA_REGION_LENGTH__+0x94>
    208e:	69 2d       	mov	r22, r9
    2090:	70 e0       	ldi	r23, 0x00	; 0
    2092:	02 c0       	rjmp	.+4      	; 0x2098 <__DATA_REGION_LENGTH__+0x98>
    2094:	6f ef       	ldi	r22, 0xFF	; 255
    2096:	7f ef       	ldi	r23, 0xFF	; 255
    2098:	c5 01       	movw	r24, r10
    209a:	4e d1       	rcall	.+668    	; 0x2338 <strnlen>
    209c:	4c 01       	movw	r8, r24
    209e:	82 01       	movw	r16, r4
    20a0:	f3 2d       	mov	r31, r3
    20a2:	ff 77       	andi	r31, 0x7F	; 127
    20a4:	3f 2e       	mov	r3, r31
    20a6:	15 c0       	rjmp	.+42     	; 0x20d2 <__DATA_REGION_LENGTH__+0xd2>
    20a8:	28 01       	movw	r4, r16
    20aa:	22 e0       	ldi	r18, 0x02	; 2
    20ac:	42 0e       	add	r4, r18
    20ae:	51 1c       	adc	r5, r1
    20b0:	f8 01       	movw	r30, r16
    20b2:	a0 80       	ld	r10, Z
    20b4:	b1 80       	ldd	r11, Z+1	; 0x01
    20b6:	36 fe       	sbrs	r3, 6
    20b8:	03 c0       	rjmp	.+6      	; 0x20c0 <__DATA_REGION_LENGTH__+0xc0>
    20ba:	69 2d       	mov	r22, r9
    20bc:	70 e0       	ldi	r23, 0x00	; 0
    20be:	02 c0       	rjmp	.+4      	; 0x20c4 <__DATA_REGION_LENGTH__+0xc4>
    20c0:	6f ef       	ldi	r22, 0xFF	; 255
    20c2:	7f ef       	ldi	r23, 0xFF	; 255
    20c4:	c5 01       	movw	r24, r10
    20c6:	2d d1       	rcall	.+602    	; 0x2322 <strnlen_P>
    20c8:	4c 01       	movw	r8, r24
    20ca:	f3 2d       	mov	r31, r3
    20cc:	f0 68       	ori	r31, 0x80	; 128
    20ce:	3f 2e       	mov	r3, r31
    20d0:	82 01       	movw	r16, r4
    20d2:	33 fc       	sbrc	r3, 3
    20d4:	19 c0       	rjmp	.+50     	; 0x2108 <__DATA_REGION_LENGTH__+0x108>
    20d6:	82 2d       	mov	r24, r2
    20d8:	90 e0       	ldi	r25, 0x00	; 0
    20da:	88 16       	cp	r8, r24
    20dc:	99 06       	cpc	r9, r25
    20de:	a0 f4       	brcc	.+40     	; 0x2108 <__DATA_REGION_LENGTH__+0x108>
    20e0:	b6 01       	movw	r22, r12
    20e2:	80 e2       	ldi	r24, 0x20	; 32
    20e4:	90 e0       	ldi	r25, 0x00	; 0
    20e6:	33 d1       	rcall	.+614    	; 0x234e <fputc>
    20e8:	2a 94       	dec	r2
    20ea:	f5 cf       	rjmp	.-22     	; 0x20d6 <__DATA_REGION_LENGTH__+0xd6>
    20ec:	f5 01       	movw	r30, r10
    20ee:	37 fc       	sbrc	r3, 7
    20f0:	85 91       	lpm	r24, Z+
    20f2:	37 fe       	sbrs	r3, 7
    20f4:	81 91       	ld	r24, Z+
    20f6:	5f 01       	movw	r10, r30
    20f8:	b6 01       	movw	r22, r12
    20fa:	90 e0       	ldi	r25, 0x00	; 0
    20fc:	28 d1       	rcall	.+592    	; 0x234e <fputc>
    20fe:	21 10       	cpse	r2, r1
    2100:	2a 94       	dec	r2
    2102:	21 e0       	ldi	r18, 0x01	; 1
    2104:	82 1a       	sub	r8, r18
    2106:	91 08       	sbc	r9, r1
    2108:	81 14       	cp	r8, r1
    210a:	91 04       	cpc	r9, r1
    210c:	79 f7       	brne	.-34     	; 0x20ec <__DATA_REGION_LENGTH__+0xec>
    210e:	e1 c0       	rjmp	.+450    	; 0x22d2 <__stack+0xd3>
    2110:	84 36       	cpi	r24, 0x64	; 100
    2112:	11 f0       	breq	.+4      	; 0x2118 <__DATA_REGION_LENGTH__+0x118>
    2114:	89 36       	cpi	r24, 0x69	; 105
    2116:	39 f5       	brne	.+78     	; 0x2166 <__DATA_REGION_LENGTH__+0x166>
    2118:	f8 01       	movw	r30, r16
    211a:	37 fe       	sbrs	r3, 7
    211c:	07 c0       	rjmp	.+14     	; 0x212c <__DATA_REGION_LENGTH__+0x12c>
    211e:	60 81       	ld	r22, Z
    2120:	71 81       	ldd	r23, Z+1	; 0x01
    2122:	82 81       	ldd	r24, Z+2	; 0x02
    2124:	93 81       	ldd	r25, Z+3	; 0x03
    2126:	0c 5f       	subi	r16, 0xFC	; 252
    2128:	1f 4f       	sbci	r17, 0xFF	; 255
    212a:	08 c0       	rjmp	.+16     	; 0x213c <__DATA_REGION_LENGTH__+0x13c>
    212c:	60 81       	ld	r22, Z
    212e:	71 81       	ldd	r23, Z+1	; 0x01
    2130:	07 2e       	mov	r0, r23
    2132:	00 0c       	add	r0, r0
    2134:	88 0b       	sbc	r24, r24
    2136:	99 0b       	sbc	r25, r25
    2138:	0e 5f       	subi	r16, 0xFE	; 254
    213a:	1f 4f       	sbci	r17, 0xFF	; 255
    213c:	f3 2d       	mov	r31, r3
    213e:	ff 76       	andi	r31, 0x6F	; 111
    2140:	3f 2e       	mov	r3, r31
    2142:	97 ff       	sbrs	r25, 7
    2144:	09 c0       	rjmp	.+18     	; 0x2158 <__DATA_REGION_LENGTH__+0x158>
    2146:	90 95       	com	r25
    2148:	80 95       	com	r24
    214a:	70 95       	com	r23
    214c:	61 95       	neg	r22
    214e:	7f 4f       	sbci	r23, 0xFF	; 255
    2150:	8f 4f       	sbci	r24, 0xFF	; 255
    2152:	9f 4f       	sbci	r25, 0xFF	; 255
    2154:	f0 68       	ori	r31, 0x80	; 128
    2156:	3f 2e       	mov	r3, r31
    2158:	2a e0       	ldi	r18, 0x0A	; 10
    215a:	30 e0       	ldi	r19, 0x00	; 0
    215c:	a3 01       	movw	r20, r6
    215e:	33 d1       	rcall	.+614    	; 0x23c6 <__ultoa_invert>
    2160:	88 2e       	mov	r8, r24
    2162:	86 18       	sub	r8, r6
    2164:	44 c0       	rjmp	.+136    	; 0x21ee <__DATA_REGION_LENGTH__+0x1ee>
    2166:	85 37       	cpi	r24, 0x75	; 117
    2168:	31 f4       	brne	.+12     	; 0x2176 <__DATA_REGION_LENGTH__+0x176>
    216a:	23 2d       	mov	r18, r3
    216c:	2f 7e       	andi	r18, 0xEF	; 239
    216e:	b2 2e       	mov	r11, r18
    2170:	2a e0       	ldi	r18, 0x0A	; 10
    2172:	30 e0       	ldi	r19, 0x00	; 0
    2174:	25 c0       	rjmp	.+74     	; 0x21c0 <__DATA_REGION_LENGTH__+0x1c0>
    2176:	93 2d       	mov	r25, r3
    2178:	99 7f       	andi	r25, 0xF9	; 249
    217a:	b9 2e       	mov	r11, r25
    217c:	8f 36       	cpi	r24, 0x6F	; 111
    217e:	c1 f0       	breq	.+48     	; 0x21b0 <__DATA_REGION_LENGTH__+0x1b0>
    2180:	18 f4       	brcc	.+6      	; 0x2188 <__DATA_REGION_LENGTH__+0x188>
    2182:	88 35       	cpi	r24, 0x58	; 88
    2184:	79 f0       	breq	.+30     	; 0x21a4 <__DATA_REGION_LENGTH__+0x1a4>
    2186:	ae c0       	rjmp	.+348    	; 0x22e4 <__stack+0xe5>
    2188:	80 37       	cpi	r24, 0x70	; 112
    218a:	19 f0       	breq	.+6      	; 0x2192 <__DATA_REGION_LENGTH__+0x192>
    218c:	88 37       	cpi	r24, 0x78	; 120
    218e:	21 f0       	breq	.+8      	; 0x2198 <__DATA_REGION_LENGTH__+0x198>
    2190:	a9 c0       	rjmp	.+338    	; 0x22e4 <__stack+0xe5>
    2192:	e9 2f       	mov	r30, r25
    2194:	e0 61       	ori	r30, 0x10	; 16
    2196:	be 2e       	mov	r11, r30
    2198:	b4 fe       	sbrs	r11, 4
    219a:	0d c0       	rjmp	.+26     	; 0x21b6 <__DATA_REGION_LENGTH__+0x1b6>
    219c:	fb 2d       	mov	r31, r11
    219e:	f4 60       	ori	r31, 0x04	; 4
    21a0:	bf 2e       	mov	r11, r31
    21a2:	09 c0       	rjmp	.+18     	; 0x21b6 <__DATA_REGION_LENGTH__+0x1b6>
    21a4:	34 fe       	sbrs	r3, 4
    21a6:	0a c0       	rjmp	.+20     	; 0x21bc <__DATA_REGION_LENGTH__+0x1bc>
    21a8:	29 2f       	mov	r18, r25
    21aa:	26 60       	ori	r18, 0x06	; 6
    21ac:	b2 2e       	mov	r11, r18
    21ae:	06 c0       	rjmp	.+12     	; 0x21bc <__DATA_REGION_LENGTH__+0x1bc>
    21b0:	28 e0       	ldi	r18, 0x08	; 8
    21b2:	30 e0       	ldi	r19, 0x00	; 0
    21b4:	05 c0       	rjmp	.+10     	; 0x21c0 <__DATA_REGION_LENGTH__+0x1c0>
    21b6:	20 e1       	ldi	r18, 0x10	; 16
    21b8:	30 e0       	ldi	r19, 0x00	; 0
    21ba:	02 c0       	rjmp	.+4      	; 0x21c0 <__DATA_REGION_LENGTH__+0x1c0>
    21bc:	20 e1       	ldi	r18, 0x10	; 16
    21be:	32 e0       	ldi	r19, 0x02	; 2
    21c0:	f8 01       	movw	r30, r16
    21c2:	b7 fe       	sbrs	r11, 7
    21c4:	07 c0       	rjmp	.+14     	; 0x21d4 <__DATA_REGION_LENGTH__+0x1d4>
    21c6:	60 81       	ld	r22, Z
    21c8:	71 81       	ldd	r23, Z+1	; 0x01
    21ca:	82 81       	ldd	r24, Z+2	; 0x02
    21cc:	93 81       	ldd	r25, Z+3	; 0x03
    21ce:	0c 5f       	subi	r16, 0xFC	; 252
    21d0:	1f 4f       	sbci	r17, 0xFF	; 255
    21d2:	06 c0       	rjmp	.+12     	; 0x21e0 <__DATA_REGION_LENGTH__+0x1e0>
    21d4:	60 81       	ld	r22, Z
    21d6:	71 81       	ldd	r23, Z+1	; 0x01
    21d8:	80 e0       	ldi	r24, 0x00	; 0
    21da:	90 e0       	ldi	r25, 0x00	; 0
    21dc:	0e 5f       	subi	r16, 0xFE	; 254
    21de:	1f 4f       	sbci	r17, 0xFF	; 255
    21e0:	a3 01       	movw	r20, r6
    21e2:	f1 d0       	rcall	.+482    	; 0x23c6 <__ultoa_invert>
    21e4:	88 2e       	mov	r8, r24
    21e6:	86 18       	sub	r8, r6
    21e8:	fb 2d       	mov	r31, r11
    21ea:	ff 77       	andi	r31, 0x7F	; 127
    21ec:	3f 2e       	mov	r3, r31
    21ee:	36 fe       	sbrs	r3, 6
    21f0:	0d c0       	rjmp	.+26     	; 0x220c <__stack+0xd>
    21f2:	23 2d       	mov	r18, r3
    21f4:	2e 7f       	andi	r18, 0xFE	; 254
    21f6:	a2 2e       	mov	r10, r18
    21f8:	89 14       	cp	r8, r9
    21fa:	58 f4       	brcc	.+22     	; 0x2212 <__stack+0x13>
    21fc:	34 fe       	sbrs	r3, 4
    21fe:	0b c0       	rjmp	.+22     	; 0x2216 <__stack+0x17>
    2200:	32 fc       	sbrc	r3, 2
    2202:	09 c0       	rjmp	.+18     	; 0x2216 <__stack+0x17>
    2204:	83 2d       	mov	r24, r3
    2206:	8e 7e       	andi	r24, 0xEE	; 238
    2208:	a8 2e       	mov	r10, r24
    220a:	05 c0       	rjmp	.+10     	; 0x2216 <__stack+0x17>
    220c:	b8 2c       	mov	r11, r8
    220e:	a3 2c       	mov	r10, r3
    2210:	03 c0       	rjmp	.+6      	; 0x2218 <__stack+0x19>
    2212:	b8 2c       	mov	r11, r8
    2214:	01 c0       	rjmp	.+2      	; 0x2218 <__stack+0x19>
    2216:	b9 2c       	mov	r11, r9
    2218:	a4 fe       	sbrs	r10, 4
    221a:	0f c0       	rjmp	.+30     	; 0x223a <__stack+0x3b>
    221c:	fe 01       	movw	r30, r28
    221e:	e8 0d       	add	r30, r8
    2220:	f1 1d       	adc	r31, r1
    2222:	80 81       	ld	r24, Z
    2224:	80 33       	cpi	r24, 0x30	; 48
    2226:	21 f4       	brne	.+8      	; 0x2230 <__stack+0x31>
    2228:	9a 2d       	mov	r25, r10
    222a:	99 7e       	andi	r25, 0xE9	; 233
    222c:	a9 2e       	mov	r10, r25
    222e:	09 c0       	rjmp	.+18     	; 0x2242 <__stack+0x43>
    2230:	a2 fe       	sbrs	r10, 2
    2232:	06 c0       	rjmp	.+12     	; 0x2240 <__stack+0x41>
    2234:	b3 94       	inc	r11
    2236:	b3 94       	inc	r11
    2238:	04 c0       	rjmp	.+8      	; 0x2242 <__stack+0x43>
    223a:	8a 2d       	mov	r24, r10
    223c:	86 78       	andi	r24, 0x86	; 134
    223e:	09 f0       	breq	.+2      	; 0x2242 <__stack+0x43>
    2240:	b3 94       	inc	r11
    2242:	a3 fc       	sbrc	r10, 3
    2244:	10 c0       	rjmp	.+32     	; 0x2266 <__stack+0x67>
    2246:	a0 fe       	sbrs	r10, 0
    2248:	06 c0       	rjmp	.+12     	; 0x2256 <__stack+0x57>
    224a:	b2 14       	cp	r11, r2
    224c:	80 f4       	brcc	.+32     	; 0x226e <__stack+0x6f>
    224e:	28 0c       	add	r2, r8
    2250:	92 2c       	mov	r9, r2
    2252:	9b 18       	sub	r9, r11
    2254:	0d c0       	rjmp	.+26     	; 0x2270 <__stack+0x71>
    2256:	b2 14       	cp	r11, r2
    2258:	58 f4       	brcc	.+22     	; 0x2270 <__stack+0x71>
    225a:	b6 01       	movw	r22, r12
    225c:	80 e2       	ldi	r24, 0x20	; 32
    225e:	90 e0       	ldi	r25, 0x00	; 0
    2260:	76 d0       	rcall	.+236    	; 0x234e <fputc>
    2262:	b3 94       	inc	r11
    2264:	f8 cf       	rjmp	.-16     	; 0x2256 <__stack+0x57>
    2266:	b2 14       	cp	r11, r2
    2268:	18 f4       	brcc	.+6      	; 0x2270 <__stack+0x71>
    226a:	2b 18       	sub	r2, r11
    226c:	02 c0       	rjmp	.+4      	; 0x2272 <__stack+0x73>
    226e:	98 2c       	mov	r9, r8
    2270:	21 2c       	mov	r2, r1
    2272:	a4 fe       	sbrs	r10, 4
    2274:	0f c0       	rjmp	.+30     	; 0x2294 <__stack+0x95>
    2276:	b6 01       	movw	r22, r12
    2278:	80 e3       	ldi	r24, 0x30	; 48
    227a:	90 e0       	ldi	r25, 0x00	; 0
    227c:	68 d0       	rcall	.+208    	; 0x234e <fputc>
    227e:	a2 fe       	sbrs	r10, 2
    2280:	16 c0       	rjmp	.+44     	; 0x22ae <__stack+0xaf>
    2282:	a1 fc       	sbrc	r10, 1
    2284:	03 c0       	rjmp	.+6      	; 0x228c <__stack+0x8d>
    2286:	88 e7       	ldi	r24, 0x78	; 120
    2288:	90 e0       	ldi	r25, 0x00	; 0
    228a:	02 c0       	rjmp	.+4      	; 0x2290 <__stack+0x91>
    228c:	88 e5       	ldi	r24, 0x58	; 88
    228e:	90 e0       	ldi	r25, 0x00	; 0
    2290:	b6 01       	movw	r22, r12
    2292:	0c c0       	rjmp	.+24     	; 0x22ac <__stack+0xad>
    2294:	8a 2d       	mov	r24, r10
    2296:	86 78       	andi	r24, 0x86	; 134
    2298:	51 f0       	breq	.+20     	; 0x22ae <__stack+0xaf>
    229a:	a1 fe       	sbrs	r10, 1
    229c:	02 c0       	rjmp	.+4      	; 0x22a2 <__stack+0xa3>
    229e:	8b e2       	ldi	r24, 0x2B	; 43
    22a0:	01 c0       	rjmp	.+2      	; 0x22a4 <__stack+0xa5>
    22a2:	80 e2       	ldi	r24, 0x20	; 32
    22a4:	a7 fc       	sbrc	r10, 7
    22a6:	8d e2       	ldi	r24, 0x2D	; 45
    22a8:	b6 01       	movw	r22, r12
    22aa:	90 e0       	ldi	r25, 0x00	; 0
    22ac:	50 d0       	rcall	.+160    	; 0x234e <fputc>
    22ae:	89 14       	cp	r8, r9
    22b0:	30 f4       	brcc	.+12     	; 0x22be <__stack+0xbf>
    22b2:	b6 01       	movw	r22, r12
    22b4:	80 e3       	ldi	r24, 0x30	; 48
    22b6:	90 e0       	ldi	r25, 0x00	; 0
    22b8:	4a d0       	rcall	.+148    	; 0x234e <fputc>
    22ba:	9a 94       	dec	r9
    22bc:	f8 cf       	rjmp	.-16     	; 0x22ae <__stack+0xaf>
    22be:	8a 94       	dec	r8
    22c0:	f3 01       	movw	r30, r6
    22c2:	e8 0d       	add	r30, r8
    22c4:	f1 1d       	adc	r31, r1
    22c6:	80 81       	ld	r24, Z
    22c8:	b6 01       	movw	r22, r12
    22ca:	90 e0       	ldi	r25, 0x00	; 0
    22cc:	40 d0       	rcall	.+128    	; 0x234e <fputc>
    22ce:	81 10       	cpse	r8, r1
    22d0:	f6 cf       	rjmp	.-20     	; 0x22be <__stack+0xbf>
    22d2:	22 20       	and	r2, r2
    22d4:	09 f4       	brne	.+2      	; 0x22d8 <__stack+0xd9>
    22d6:	4e ce       	rjmp	.-868    	; 0x1f74 <vfprintf+0x4c>
    22d8:	b6 01       	movw	r22, r12
    22da:	80 e2       	ldi	r24, 0x20	; 32
    22dc:	90 e0       	ldi	r25, 0x00	; 0
    22de:	37 d0       	rcall	.+110    	; 0x234e <fputc>
    22e0:	2a 94       	dec	r2
    22e2:	f7 cf       	rjmp	.-18     	; 0x22d2 <__stack+0xd3>
    22e4:	f6 01       	movw	r30, r12
    22e6:	86 81       	ldd	r24, Z+6	; 0x06
    22e8:	97 81       	ldd	r25, Z+7	; 0x07
    22ea:	02 c0       	rjmp	.+4      	; 0x22f0 <__stack+0xf1>
    22ec:	8f ef       	ldi	r24, 0xFF	; 255
    22ee:	9f ef       	ldi	r25, 0xFF	; 255
    22f0:	2b 96       	adiw	r28, 0x0b	; 11
    22f2:	0f b6       	in	r0, 0x3f	; 63
    22f4:	f8 94       	cli
    22f6:	de bf       	out	0x3e, r29	; 62
    22f8:	0f be       	out	0x3f, r0	; 63
    22fa:	cd bf       	out	0x3d, r28	; 61
    22fc:	df 91       	pop	r29
    22fe:	cf 91       	pop	r28
    2300:	1f 91       	pop	r17
    2302:	0f 91       	pop	r16
    2304:	ff 90       	pop	r15
    2306:	ef 90       	pop	r14
    2308:	df 90       	pop	r13
    230a:	cf 90       	pop	r12
    230c:	bf 90       	pop	r11
    230e:	af 90       	pop	r10
    2310:	9f 90       	pop	r9
    2312:	8f 90       	pop	r8
    2314:	7f 90       	pop	r7
    2316:	6f 90       	pop	r6
    2318:	5f 90       	pop	r5
    231a:	4f 90       	pop	r4
    231c:	3f 90       	pop	r3
    231e:	2f 90       	pop	r2
    2320:	08 95       	ret

00002322 <strnlen_P>:
    2322:	fc 01       	movw	r30, r24
    2324:	05 90       	lpm	r0, Z+
    2326:	61 50       	subi	r22, 0x01	; 1
    2328:	70 40       	sbci	r23, 0x00	; 0
    232a:	01 10       	cpse	r0, r1
    232c:	d8 f7       	brcc	.-10     	; 0x2324 <strnlen_P+0x2>
    232e:	80 95       	com	r24
    2330:	90 95       	com	r25
    2332:	8e 0f       	add	r24, r30
    2334:	9f 1f       	adc	r25, r31
    2336:	08 95       	ret

00002338 <strnlen>:
    2338:	fc 01       	movw	r30, r24
    233a:	61 50       	subi	r22, 0x01	; 1
    233c:	70 40       	sbci	r23, 0x00	; 0
    233e:	01 90       	ld	r0, Z+
    2340:	01 10       	cpse	r0, r1
    2342:	d8 f7       	brcc	.-10     	; 0x233a <strnlen+0x2>
    2344:	80 95       	com	r24
    2346:	90 95       	com	r25
    2348:	8e 0f       	add	r24, r30
    234a:	9f 1f       	adc	r25, r31
    234c:	08 95       	ret

0000234e <fputc>:
    234e:	0f 93       	push	r16
    2350:	1f 93       	push	r17
    2352:	cf 93       	push	r28
    2354:	df 93       	push	r29
    2356:	fb 01       	movw	r30, r22
    2358:	23 81       	ldd	r18, Z+3	; 0x03
    235a:	21 fd       	sbrc	r18, 1
    235c:	03 c0       	rjmp	.+6      	; 0x2364 <fputc+0x16>
    235e:	8f ef       	ldi	r24, 0xFF	; 255
    2360:	9f ef       	ldi	r25, 0xFF	; 255
    2362:	2c c0       	rjmp	.+88     	; 0x23bc <fputc+0x6e>
    2364:	22 ff       	sbrs	r18, 2
    2366:	16 c0       	rjmp	.+44     	; 0x2394 <fputc+0x46>
    2368:	46 81       	ldd	r20, Z+6	; 0x06
    236a:	57 81       	ldd	r21, Z+7	; 0x07
    236c:	24 81       	ldd	r18, Z+4	; 0x04
    236e:	35 81       	ldd	r19, Z+5	; 0x05
    2370:	42 17       	cp	r20, r18
    2372:	53 07       	cpc	r21, r19
    2374:	44 f4       	brge	.+16     	; 0x2386 <fputc+0x38>
    2376:	a0 81       	ld	r26, Z
    2378:	b1 81       	ldd	r27, Z+1	; 0x01
    237a:	9d 01       	movw	r18, r26
    237c:	2f 5f       	subi	r18, 0xFF	; 255
    237e:	3f 4f       	sbci	r19, 0xFF	; 255
    2380:	31 83       	std	Z+1, r19	; 0x01
    2382:	20 83       	st	Z, r18
    2384:	8c 93       	st	X, r24
    2386:	26 81       	ldd	r18, Z+6	; 0x06
    2388:	37 81       	ldd	r19, Z+7	; 0x07
    238a:	2f 5f       	subi	r18, 0xFF	; 255
    238c:	3f 4f       	sbci	r19, 0xFF	; 255
    238e:	37 83       	std	Z+7, r19	; 0x07
    2390:	26 83       	std	Z+6, r18	; 0x06
    2392:	14 c0       	rjmp	.+40     	; 0x23bc <fputc+0x6e>
    2394:	8b 01       	movw	r16, r22
    2396:	ec 01       	movw	r28, r24
    2398:	fb 01       	movw	r30, r22
    239a:	00 84       	ldd	r0, Z+8	; 0x08
    239c:	f1 85       	ldd	r31, Z+9	; 0x09
    239e:	e0 2d       	mov	r30, r0
    23a0:	19 95       	eicall
    23a2:	89 2b       	or	r24, r25
    23a4:	e1 f6       	brne	.-72     	; 0x235e <fputc+0x10>
    23a6:	d8 01       	movw	r26, r16
    23a8:	16 96       	adiw	r26, 0x06	; 6
    23aa:	8d 91       	ld	r24, X+
    23ac:	9c 91       	ld	r25, X
    23ae:	17 97       	sbiw	r26, 0x07	; 7
    23b0:	01 96       	adiw	r24, 0x01	; 1
    23b2:	17 96       	adiw	r26, 0x07	; 7
    23b4:	9c 93       	st	X, r25
    23b6:	8e 93       	st	-X, r24
    23b8:	16 97       	sbiw	r26, 0x06	; 6
    23ba:	ce 01       	movw	r24, r28
    23bc:	df 91       	pop	r29
    23be:	cf 91       	pop	r28
    23c0:	1f 91       	pop	r17
    23c2:	0f 91       	pop	r16
    23c4:	08 95       	ret

000023c6 <__ultoa_invert>:
    23c6:	fa 01       	movw	r30, r20
    23c8:	aa 27       	eor	r26, r26
    23ca:	28 30       	cpi	r18, 0x08	; 8
    23cc:	51 f1       	breq	.+84     	; 0x2422 <__ultoa_invert+0x5c>
    23ce:	20 31       	cpi	r18, 0x10	; 16
    23d0:	81 f1       	breq	.+96     	; 0x2432 <__ultoa_invert+0x6c>
    23d2:	e8 94       	clt
    23d4:	6f 93       	push	r22
    23d6:	6e 7f       	andi	r22, 0xFE	; 254
    23d8:	6e 5f       	subi	r22, 0xFE	; 254
    23da:	7f 4f       	sbci	r23, 0xFF	; 255
    23dc:	8f 4f       	sbci	r24, 0xFF	; 255
    23de:	9f 4f       	sbci	r25, 0xFF	; 255
    23e0:	af 4f       	sbci	r26, 0xFF	; 255
    23e2:	b1 e0       	ldi	r27, 0x01	; 1
    23e4:	3e d0       	rcall	.+124    	; 0x2462 <__ultoa_invert+0x9c>
    23e6:	b4 e0       	ldi	r27, 0x04	; 4
    23e8:	3c d0       	rcall	.+120    	; 0x2462 <__ultoa_invert+0x9c>
    23ea:	67 0f       	add	r22, r23
    23ec:	78 1f       	adc	r23, r24
    23ee:	89 1f       	adc	r24, r25
    23f0:	9a 1f       	adc	r25, r26
    23f2:	a1 1d       	adc	r26, r1
    23f4:	68 0f       	add	r22, r24
    23f6:	79 1f       	adc	r23, r25
    23f8:	8a 1f       	adc	r24, r26
    23fa:	91 1d       	adc	r25, r1
    23fc:	a1 1d       	adc	r26, r1
    23fe:	6a 0f       	add	r22, r26
    2400:	71 1d       	adc	r23, r1
    2402:	81 1d       	adc	r24, r1
    2404:	91 1d       	adc	r25, r1
    2406:	a1 1d       	adc	r26, r1
    2408:	20 d0       	rcall	.+64     	; 0x244a <__ultoa_invert+0x84>
    240a:	09 f4       	brne	.+2      	; 0x240e <__ultoa_invert+0x48>
    240c:	68 94       	set
    240e:	3f 91       	pop	r19
    2410:	2a e0       	ldi	r18, 0x0A	; 10
    2412:	26 9f       	mul	r18, r22
    2414:	11 24       	eor	r1, r1
    2416:	30 19       	sub	r19, r0
    2418:	30 5d       	subi	r19, 0xD0	; 208
    241a:	31 93       	st	Z+, r19
    241c:	de f6       	brtc	.-74     	; 0x23d4 <__ultoa_invert+0xe>
    241e:	cf 01       	movw	r24, r30
    2420:	08 95       	ret
    2422:	46 2f       	mov	r20, r22
    2424:	47 70       	andi	r20, 0x07	; 7
    2426:	40 5d       	subi	r20, 0xD0	; 208
    2428:	41 93       	st	Z+, r20
    242a:	b3 e0       	ldi	r27, 0x03	; 3
    242c:	0f d0       	rcall	.+30     	; 0x244c <__ultoa_invert+0x86>
    242e:	c9 f7       	brne	.-14     	; 0x2422 <__ultoa_invert+0x5c>
    2430:	f6 cf       	rjmp	.-20     	; 0x241e <__ultoa_invert+0x58>
    2432:	46 2f       	mov	r20, r22
    2434:	4f 70       	andi	r20, 0x0F	; 15
    2436:	40 5d       	subi	r20, 0xD0	; 208
    2438:	4a 33       	cpi	r20, 0x3A	; 58
    243a:	18 f0       	brcs	.+6      	; 0x2442 <__ultoa_invert+0x7c>
    243c:	49 5d       	subi	r20, 0xD9	; 217
    243e:	31 fd       	sbrc	r19, 1
    2440:	40 52       	subi	r20, 0x20	; 32
    2442:	41 93       	st	Z+, r20
    2444:	02 d0       	rcall	.+4      	; 0x244a <__ultoa_invert+0x84>
    2446:	a9 f7       	brne	.-22     	; 0x2432 <__ultoa_invert+0x6c>
    2448:	ea cf       	rjmp	.-44     	; 0x241e <__ultoa_invert+0x58>
    244a:	b4 e0       	ldi	r27, 0x04	; 4
    244c:	a6 95       	lsr	r26
    244e:	97 95       	ror	r25
    2450:	87 95       	ror	r24
    2452:	77 95       	ror	r23
    2454:	67 95       	ror	r22
    2456:	ba 95       	dec	r27
    2458:	c9 f7       	brne	.-14     	; 0x244c <__ultoa_invert+0x86>
    245a:	00 97       	sbiw	r24, 0x00	; 0
    245c:	61 05       	cpc	r22, r1
    245e:	71 05       	cpc	r23, r1
    2460:	08 95       	ret
    2462:	9b 01       	movw	r18, r22
    2464:	ac 01       	movw	r20, r24
    2466:	0a 2e       	mov	r0, r26
    2468:	06 94       	lsr	r0
    246a:	57 95       	ror	r21
    246c:	47 95       	ror	r20
    246e:	37 95       	ror	r19
    2470:	27 95       	ror	r18
    2472:	ba 95       	dec	r27
    2474:	c9 f7       	brne	.-14     	; 0x2468 <__ultoa_invert+0xa2>
    2476:	62 0f       	add	r22, r18
    2478:	73 1f       	adc	r23, r19
    247a:	84 1f       	adc	r24, r20
    247c:	95 1f       	adc	r25, r21
    247e:	a0 1d       	adc	r26, r0
    2480:	08 95       	ret

00002482 <_exit>:
    2482:	f8 94       	cli

00002484 <__stop_program>:
    2484:	ff cf       	rjmp	.-2      	; 0x2484 <__stop_program>
